
build/bin/system.elf:     file format elf32-i386


Disassembly of section .boottext:

00007c00 <_start>:
    7c00:	ea 05 7c 00 00   	ljmp   $0xb8,$0x7c05

00007c05 <offest>:
    7c05:	b8 00 00 8e d8       	mov    $0xd88e0000,%eax
    7c0a:	8e d0                	mov    %eax,%ss
    7c0c:	8e c0                	mov    %eax,%es
    7c0e:	8e e0                	mov    %eax,%fs
    7c10:	8e e8                	mov    %eax,%gs
    7c12:	66 bc 00 7c          	mov    $0x7c00,%sp
	...

00007c18 <boot_load>:
    7c18:	bb 00 7e b9 02       	mov    $0x2b97e00,%ebx
    7c1d:	00 b8 40 02 cd 13    	add    %bh,0x13cd0240(%eax)
    7c23:	72 f3                	jb     7c18 <boot_load>
    7c25:	fa                   	cli    
    7c26:	0f 01 16             	lgdtl  (%esi)
    7c29:	45                   	inc    %ebp
    7c2a:	7e 0f                	jle    7c3b <boot_load+0x23>
    7c2c:	01 1e                	add    %ebx,(%esi)
    7c2e:	4b                   	dec    %ebx
    7c2f:	7e 66                	jle    7c97 <boot_sig+0x59>
    7c31:	b8 01 00 00 00       	mov    $0x1,%eax
    7c36:	0f 01 f0             	lmsw   %ax
    7c39:	ea 00 7e 08 00   	ljmp   $0x0,$0x87e00

00007c3e <boot_sig>:
	...
    7dfe:	55                   	push   %ebp
    7dff:	aa                   	stos   %al,%es:(%edi)

00007e00 <_protected_mode_start>:
    7e00:	66 b8 10 00          	mov    $0x10,%ax
    7e04:	8e d8                	mov    %eax,%ds
    7e06:	8e d0                	mov    %eax,%ss
    7e08:	8e c0                	mov    %eax,%es
    7e0a:	8e e0                	mov    %eax,%fs
    7e0c:	8e e8                	mov    %eax,%gs
    7e0e:	bc 00 7c 00 00       	mov    $0x7c00,%esp
    7e13:	e8 0a 02 00 00       	call   8022 <_os_init>
    7e18:	b8 00 b0 00 00       	mov    $0xb000,%eax
    7e1d:	0f 22 d8             	mov    %eax,%cr3
    7e20:	0f 20 e0             	mov    %cr4,%eax
    7e23:	83 c8 10             	or     $0x10,%eax
    7e26:	0f 22 e0             	mov    %eax,%cr4
    7e29:	0f 20 c0             	mov    %cr0,%eax
    7e2c:	0d 00 00 00 80       	or     $0x80000000,%eax
    7e31:	0f 22 c0             	mov    %eax,%cr0
    7e34:	e8 fe 02 00 00       	call   8137 <_os_main>
    7e39:	fb                   	sti    
    7e3a:	eb fe                	jmp    7e3a <_protected_mode_start+0x3a>

00007e3c <timer_init>:
    7e3c:	1e                   	push   %ds
    7e3d:	60                   	pusha  
    7e3e:	b0 20                	mov    $0x20,%al
    7e40:	e6 20                	out    %al,$0x20
    7e42:	61                   	popa   
    7e43:	1f                   	pop    %ds
    7e44:	cf                   	iret   

00007e45 <gdt_desc>:
    7e45:	ff 07                	incl   (%edi)
    7e47:	00 c0                	add    %al,%al
	...

00007e4b <idt_desc>:
    7e4b:	ff 07                	incl   (%edi)
    7e4d:	20 c8                	and    %cl,%al
	...

Disassembly of section .text:

00008000 <outb>:
    8000:	83 ec 08             	sub    $0x8,%esp
    8003:	8b 54 24 0c          	mov    0xc(%esp),%edx
    8007:	8b 44 24 10          	mov    0x10(%esp),%eax
    800b:	88 54 24 04          	mov    %dl,0x4(%esp)
    800f:	66 89 04 24          	mov    %ax,(%esp)
    8013:	0f b7 14 24          	movzwl (%esp),%edx
    8017:	0f b6 44 24 04       	movzbl 0x4(%esp),%eax
    801c:	ee                   	out    %al,(%dx)
    801d:	90                   	nop
    801e:	83 c4 08             	add    $0x8,%esp
    8021:	c3                   	ret    

00008022 <_os_init>:
    8022:	83 ec 10             	sub    $0x10,%esp
    8025:	6a 20                	push   $0x20
    8027:	6a 11                	push   $0x11
    8029:	e8 d2 ff ff ff       	call   8000 <outb>
    802e:	83 c4 08             	add    $0x8,%esp
    8031:	68 a0 00 00 00       	push   $0xa0
    8036:	6a 11                	push   $0x11
    8038:	e8 c3 ff ff ff       	call   8000 <outb>
    803d:	83 c4 08             	add    $0x8,%esp
    8040:	6a 21                	push   $0x21
    8042:	6a 20                	push   $0x20
    8044:	e8 b7 ff ff ff       	call   8000 <outb>
    8049:	83 c4 08             	add    $0x8,%esp
    804c:	68 a1 00 00 00       	push   $0xa1
    8051:	6a 28                	push   $0x28
    8053:	e8 a8 ff ff ff       	call   8000 <outb>
    8058:	83 c4 08             	add    $0x8,%esp
    805b:	6a 21                	push   $0x21
    805d:	6a 04                	push   $0x4
    805f:	e8 9c ff ff ff       	call   8000 <outb>
    8064:	83 c4 08             	add    $0x8,%esp
    8067:	68 a1 00 00 00       	push   $0xa1
    806c:	6a 02                	push   $0x2
    806e:	e8 8d ff ff ff       	call   8000 <outb>
    8073:	83 c4 08             	add    $0x8,%esp
    8076:	6a 21                	push   $0x21
    8078:	6a 01                	push   $0x1
    807a:	e8 81 ff ff ff       	call   8000 <outb>
    807f:	83 c4 08             	add    $0x8,%esp
    8082:	68 a1 00 00 00       	push   $0xa1
    8087:	6a 01                	push   $0x1
    8089:	e8 72 ff ff ff       	call   8000 <outb>
    808e:	83 c4 08             	add    $0x8,%esp
    8091:	6a 21                	push   $0x21
    8093:	68 fe 00 00 00       	push   $0xfe
    8098:	e8 63 ff ff ff       	call   8000 <outb>
    809d:	83 c4 08             	add    $0x8,%esp
    80a0:	68 a1 00 00 00       	push   $0xa1
    80a5:	68 ff 00 00 00       	push   $0xff
    80aa:	e8 51 ff ff ff       	call   8000 <outb>
    80af:	83 c4 08             	add    $0x8,%esp
    80b2:	c7 44 24 0c 9b 2e 00 	movl   $0x2e9b,0xc(%esp)
    80b9:	00 
    80ba:	6a 43                	push   $0x43
    80bc:	6a 36                	push   $0x36
    80be:	e8 3d ff ff ff       	call   8000 <outb>
    80c3:	83 c4 08             	add    $0x8,%esp
    80c6:	8b 44 24 0c          	mov    0xc(%esp),%eax
    80ca:	0f b6 c0             	movzbl %al,%eax
    80cd:	6a 40                	push   $0x40
    80cf:	50                   	push   %eax
    80d0:	e8 2b ff ff ff       	call   8000 <outb>
    80d5:	83 c4 08             	add    $0x8,%esp
    80d8:	8b 44 24 0c          	mov    0xc(%esp),%eax
    80dc:	c1 f8 08             	sar    $0x8,%eax
    80df:	0f b6 c0             	movzbl %al,%eax
    80e2:	6a 40                	push   $0x40
    80e4:	50                   	push   %eax
    80e5:	e8 16 ff ff ff       	call   8000 <outb>
    80ea:	83 c4 08             	add    $0x8,%esp
    80ed:	b8 3c 7e 00 00       	mov    $0x7e3c,%eax
    80f2:	c1 e8 10             	shr    $0x10,%eax
    80f5:	66 a3 26 c9 00 00    	mov    %ax,0xc926
    80fb:	b8 3c 7e 00 00       	mov    $0x7e3c,%eax
    8100:	66 a3 20 c9 00 00    	mov    %ax,0xc920
    8106:	66 c7 05 22 c9 00 00 	movw   $0x8,0xc922
    810d:	08 00 
    810f:	66 c7 05 24 c9 00 00 	movw   $0x8e00,0xc924
    8116:	00 8e 
    8118:	b8 00 a0 00 00       	mov    $0xa000,%eax
    811d:	83 c8 07             	or     $0x7,%eax
    8120:	a3 00 b8 00 00       	mov    %eax,0xb800
    8125:	b8 00 90 00 00       	mov    $0x9000,%eax
    812a:	83 c8 07             	or     $0x7,%eax
    812d:	a3 00 a0 00 00       	mov    %eax,0xa000
    8132:	90                   	nop
    8133:	83 c4 10             	add    $0x10,%esp
    8136:	c3                   	ret    

00008137 <_os_main>:
    8137:	83 ec 0c             	sub    $0xc,%esp
    813a:	83 ec 08             	sub    $0x8,%esp
    813d:	6a 00                	push   $0x0
    813f:	6a 02                	push   $0x2
    8141:	e8 18 00 00 00       	call   815e <tty_set_theme>
    8146:	83 c4 10             	add    $0x10,%esp
    8149:	83 ec 0c             	sub    $0xc,%esp
    814c:	68 10 c8 00 00       	push   $0xc810
    8151:	e8 26 01 00 00       	call   827c <tty_put_str>
    8156:	83 c4 10             	add    $0x10,%esp
    8159:	90                   	nop
    815a:	83 c4 0c             	add    $0xc,%esp
    815d:	c3                   	ret    

0000815e <tty_set_theme>:
    815e:	83 ec 08             	sub    $0x8,%esp
    8161:	8b 54 24 0c          	mov    0xc(%esp),%edx
    8165:	8b 44 24 10          	mov    0x10(%esp),%eax
    8169:	66 89 54 24 04       	mov    %dx,0x4(%esp)
    816e:	66 89 04 24          	mov    %ax,(%esp)
    8172:	0f b7 04 24          	movzwl (%esp),%eax
    8176:	c1 e0 04             	shl    $0x4,%eax
    8179:	89 c2                	mov    %eax,%edx
    817b:	0f b7 44 24 04       	movzwl 0x4(%esp),%eax
    8180:	09 d0                	or     %edx,%eax
    8182:	c1 e0 08             	shl    $0x8,%eax
    8185:	66 a3 20 d0 00 00    	mov    %ax,0xd020
    818b:	90                   	nop
    818c:	83 c4 08             	add    $0x8,%esp
    818f:	c3                   	ret    

00008190 <tty_put_char>:
    8190:	53                   	push   %ebx
    8191:	83 ec 18             	sub    $0x18,%esp
    8194:	8b 44 24 20          	mov    0x20(%esp),%eax
    8198:	88 44 24 0c          	mov    %al,0xc(%esp)
    819c:	0f be 44 24 0c       	movsbl 0xc(%esp),%eax
    81a1:	83 f8 0d             	cmp    $0xd,%eax
    81a4:	74 29                	je     81cf <tty_put_char+0x3f>
    81a6:	83 f8 0d             	cmp    $0xd,%eax
    81a9:	7f 3b                	jg     81e6 <tty_put_char+0x56>
    81ab:	83 f8 09             	cmp    $0x9,%eax
    81ae:	74 29                	je     81d9 <tty_put_char+0x49>
    81b0:	83 f8 0a             	cmp    $0xa,%eax
    81b3:	75 31                	jne    81e6 <tty_put_char+0x56>
    81b5:	c7 05 24 d0 00 00 00 	movl   $0x0,0xd024
    81bc:	00 00 00 
    81bf:	0f b7 05 28 d0 00 00 	movzwl 0xd028,%eax
    81c6:	83 c0 01             	add    $0x1,%eax
    81c9:	66 a3 28 d0 00 00    	mov    %ax,0xd028
    81cf:	c7 05 24 d0 00 00 00 	movl   $0x0,0xd024
    81d6:	00 00 00 
    81d9:	a1 24 d0 00 00       	mov    0xd024,%eax
    81de:	83 c0 04             	add    $0x4,%eax
    81e1:	a3 24 d0 00 00       	mov    %eax,0xd024
    81e6:	66 0f be 54 24 0c    	movsbw 0xc(%esp),%dx
    81ec:	0f b7 05 20 d0 00 00 	movzwl 0xd020,%eax
    81f3:	89 d1                	mov    %edx,%ecx
    81f5:	09 c1                	or     %eax,%ecx
    81f7:	8b 1d 00 c8 00 00    	mov    0xc800,%ebx
    81fd:	0f b7 05 28 d0 00 00 	movzwl 0xd028,%eax
    8204:	0f b7 d0             	movzwl %ax,%edx
    8207:	89 d0                	mov    %edx,%eax
    8209:	c1 e0 02             	shl    $0x2,%eax
    820c:	01 d0                	add    %edx,%eax
    820e:	c1 e0 04             	shl    $0x4,%eax
    8211:	89 c2                	mov    %eax,%edx
    8213:	a1 24 d0 00 00       	mov    0xd024,%eax
    8218:	01 d0                	add    %edx,%eax
    821a:	01 c0                	add    %eax,%eax
    821c:	01 d8                	add    %ebx,%eax
    821e:	89 ca                	mov    %ecx,%edx
    8220:	66 89 10             	mov    %dx,(%eax)
    8223:	a1 24 d0 00 00       	mov    0xd024,%eax
    8228:	83 c0 01             	add    $0x1,%eax
    822b:	a3 24 d0 00 00       	mov    %eax,0xd024
    8230:	a1 24 d0 00 00       	mov    0xd024,%eax
    8235:	83 f8 4f             	cmp    $0x4f,%eax
    8238:	76 1a                	jbe    8254 <tty_put_char+0xc4>
    823a:	c7 05 24 d0 00 00 00 	movl   $0x0,0xd024
    8241:	00 00 00 
    8244:	0f b7 05 28 d0 00 00 	movzwl 0xd028,%eax
    824b:	83 c0 01             	add    $0x1,%eax
    824e:	66 a3 28 d0 00 00    	mov    %ax,0xd028
    8254:	0f b7 05 28 d0 00 00 	movzwl 0xd028,%eax
    825b:	66 83 f8 18          	cmp    $0x18,%ax
    825f:	76 15                	jbe    8276 <tty_put_char+0xe6>
    8261:	e8 47 00 00 00       	call   82ad <tty_scroll_up>
    8266:	0f b7 05 28 d0 00 00 	movzwl 0xd028,%eax
    826d:	83 e8 01             	sub    $0x1,%eax
    8270:	66 a3 28 d0 00 00    	mov    %ax,0xd028
    8276:	90                   	nop
    8277:	83 c4 18             	add    $0x18,%esp
    827a:	5b                   	pop    %ebx
    827b:	c3                   	ret    

0000827c <tty_put_str>:
    827c:	83 ec 0c             	sub    $0xc,%esp
    827f:	eb 1b                	jmp    829c <tty_put_str+0x20>
    8281:	8b 44 24 10          	mov    0x10(%esp),%eax
    8285:	0f b6 00             	movzbl (%eax),%eax
    8288:	0f be c0             	movsbl %al,%eax
    828b:	83 ec 0c             	sub    $0xc,%esp
    828e:	50                   	push   %eax
    828f:	e8 fc fe ff ff       	call   8190 <tty_put_char>
    8294:	83 c4 10             	add    $0x10,%esp
    8297:	83 44 24 10 01       	addl   $0x1,0x10(%esp)
    829c:	8b 44 24 10          	mov    0x10(%esp),%eax
    82a0:	0f b6 00             	movzbl (%eax),%eax
    82a3:	84 c0                	test   %al,%al
    82a5:	75 da                	jne    8281 <tty_put_str+0x5>
    82a7:	90                   	nop
    82a8:	90                   	nop
    82a9:	83 c4 0c             	add    $0xc,%esp
    82ac:	c3                   	ret    

000082ad <tty_scroll_up>:
    82ad:	90                   	nop
    82ae:	c3                   	ret    

000082af <tty_clear>:
    82af:	83 ec 10             	sub    $0x10,%esp
    82b2:	c7 44 24 0c 00 00 00 	movl   $0x0,0xc(%esp)
    82b9:	00 
    82ba:	eb 46                	jmp    8302 <tty_clear+0x53>
    82bc:	c7 44 24 08 00 00 00 	movl   $0x0,0x8(%esp)
    82c3:	00 
    82c4:	eb 30                	jmp    82f6 <tty_clear+0x47>
    82c6:	8b 0d 00 c8 00 00    	mov    0xc800,%ecx
    82cc:	8b 54 24 08          	mov    0x8(%esp),%edx
    82d0:	89 d0                	mov    %edx,%eax
    82d2:	c1 e0 02             	shl    $0x2,%eax
    82d5:	01 d0                	add    %edx,%eax
    82d7:	c1 e0 04             	shl    $0x4,%eax
    82da:	89 c2                	mov    %eax,%edx
    82dc:	8b 44 24 0c          	mov    0xc(%esp),%eax
    82e0:	01 d0                	add    %edx,%eax
    82e2:	01 c0                	add    %eax,%eax
    82e4:	8d 14 01             	lea    (%ecx,%eax,1),%edx
    82e7:	0f b7 05 20 d0 00 00 	movzwl 0xd020,%eax
    82ee:	66 89 02             	mov    %ax,(%edx)
    82f1:	83 44 24 08 01       	addl   $0x1,0x8(%esp)
    82f6:	83 7c 24 08 18       	cmpl   $0x18,0x8(%esp)
    82fb:	76 c9                	jbe    82c6 <tty_clear+0x17>
    82fd:	83 44 24 0c 01       	addl   $0x1,0xc(%esp)
    8302:	83 7c 24 0c 4f       	cmpl   $0x4f,0xc(%esp)
    8307:	76 b3                	jbe    82bc <tty_clear+0xd>
    8309:	90                   	nop
    830a:	90                   	nop
    830b:	83 c4 10             	add    $0x10,%esp
    830e:	c3                   	ret    

Disassembly of section .data:

00009000 <map_phy_buffer>:
    9000:	36 00 00             	add    %al,%ss:(%eax)
	...

0000a000 <page_table>:
    a000:	80 00 00             	addb   $0x0,(%eax)
	...

0000b000 <pg_dir>:
    b000:	87 00                	xchg   %eax,(%eax)
	...

0000c000 <gdt_table>:
	...
    c008:	ff                   	(bad)  
    c009:	ff 00                	incl   (%eax)
    c00b:	00 00                	add    %al,(%eax)
    c00d:	9a cf 00 ff ff 00 00 	lcall  $0x0,$0xffff00cf
    c014:	00 92 cf 00 00 00    	add    %dl,0xcf(%edx)
	...

0000c800 <buffer>:
    c800:	00                   	.byte 0x0
    c801:	80 0b 00             	orb    $0x0,(%ebx)

Disassembly of section .rodata:

0000c810 <.rodata>:
    c810:	48                   	dec    %eax
    c811:	65 6c                	gs insb (%dx),%es:(%edi)
    c813:	6c                   	insb   (%dx),%es:(%edi)
    c814:	6f                   	outsl  %ds:(%esi),(%dx)
    c815:	20 09                	and    %cl,(%ecx)
    c817:	20 77 6f             	and    %dh,0x6f(%edi)
    c81a:	72 6c                	jb     c888 <idt_table+0x68>
    c81c:	64 21 0a             	and    %ecx,%fs:(%edx)
	...

Disassembly of section .bss:

0000c820 <idt_table>:
	...

0000d020 <theme_color>:
    d020:	00 00                	add    %al,(%eax)
	...

0000d024 <TTY_COLUMN>:
    d024:	00 00                	add    %al,(%eax)
	...

0000d028 <TTY_ROW>:
	...

Disassembly of section .debug_line:

00000000 <.debug_line>:
   0:	72 00                	jb     2 <_start-0x7bfe>
   2:	00 00                	add    %al,(%eax)
   4:	05 00 04 00 2e       	add    $0x2e000400,%eax
   9:	00 00                	add    %al,(%eax)
   b:	00 01                	add    %al,(%ecx)
   d:	01 01                	add    %eax,(%ecx)
   f:	fb                   	sti    
  10:	0e                   	push   %cs
  11:	0d 00 01 01 01       	or     $0x1010100,%eax
  16:	01 00                	add    %eax,(%eax)
  18:	00 00                	add    %al,(%eax)
  1a:	01 00                	add    %eax,(%eax)
  1c:	00 01                	add    %al,(%ecx)
  1e:	01 01                	add    %eax,(%ecx)
  20:	1f                   	pop    %ds
  21:	02 00                	add    (%eax),%al
  23:	00 00                	add    %al,(%eax)
  25:	00 00                	add    %al,(%eax)
  27:	00 00                	add    %al,(%eax)
  29:	00 02                	add    %al,(%edx)
  2b:	01 1f                	add    %ebx,(%edi)
  2d:	02 0f                	add    (%edi),%cl
  2f:	02 07                	add    (%edi),%al
  31:	00 00                	add    %al,(%eax)
  33:	00 00                	add    %al,(%eax)
  35:	07                   	pop    %es
  36:	00 00                	add    %al,(%eax)
  38:	00 01                	add    %al,(%ecx)
  3a:	00 05 02 00 7c 00    	add    %al,0x7c0002
  40:	00 1a                	add    %bl,(%edx)
  42:	5b                   	pop    %ebx
  43:	3d 2f 2f 2f 2f       	cmp    $0x2f2f2f2f,%eax
  48:	2f                   	das    
  49:	69 3d 3d 3d 2f 30 21 	imul   $0x67595921,0x302f3d3d,%edi
  50:	59 59 67 
  53:	3d 02 c7 03 1a       	cmp    $0x1a03c702,%eax
  58:	4b                   	dec    %ebx
  59:	2f                   	das    
  5a:	2f                   	das    
  5b:	2f                   	das    
  5c:	2f                   	das    
  5d:	30 59 5a             	xor    %bl,0x5a(%ecx)
  60:	59                   	pop    %ecx
  61:	3e 3d 3d 3e 3d 59    	ds cmp $0x593d3e3d,%eax
  67:	3e 5a                	ds pop %edx
  69:	21 31                	and    %esi,(%ecx)
  6b:	21 21                	and    %esp,(%ecx)
  6d:	2f                   	das    
  6e:	30 21                	xor    %ah,(%ecx)
  70:	21 02                	and    %eax,(%edx)
  72:	0d 00 01 01 af       	or     $0xaf010100,%eax
  77:	00 00                	add    %al,(%eax)
  79:	00 05 00 04 00 3c    	add    %al,0x3c000400
  7f:	00 00                	add    %al,(%eax)
  81:	00 01                	add    %al,(%ecx)
  83:	01 01                	add    %eax,(%ecx)
  85:	fb                   	sti    
  86:	0e                   	push   %cs
  87:	0d 00 01 01 01       	or     $0x1010100,%eax
  8c:	01 00                	add    %eax,(%eax)
  8e:	00 00                	add    %al,(%eax)
  90:	01 00                	add    %eax,(%eax)
  92:	00 01                	add    %al,(%ecx)
  94:	01 01                	add    %eax,(%ecx)
  96:	1f                   	pop    %ds
  97:	03 0e                	add    (%esi),%ecx
  99:	00 00                	add    %al,(%eax)
  9b:	00 00                	add    %al,(%eax)
  9d:	00 00                	add    %al,(%eax)
  9f:	00 4b 00             	add    %cl,0x0(%ebx)
  a2:	00 00                	add    %al,(%eax)
  a4:	02 01                	add    (%ecx),%al
  a6:	1f                   	pop    %ds
  a7:	02 0f                	add    (%edi),%cl
  a9:	04 3f                	add    $0x3f,%al
  ab:	00 00                	add    %al,(%eax)
  ad:	00 00                	add    %al,(%eax)
  af:	46                   	inc    %esi
  b0:	00 00                	add    %al,(%eax)
  b2:	00 01                	add    %al,(%ecx)
  b4:	85 00                	test   %eax,(%eax)
  b6:	00 00                	add    %al,(%eax)
  b8:	01 8b 00 00 00 02    	add    %ecx,0x2000000(%ebx)
  be:	05 28 00 05 02       	add    $0x2050028,%eax
  c3:	00 80 00 00 03 22    	add    %al,0x22030000(%eax)
  c9:	01 05 02 08 2f 05    	add    %eax,0x52f0802
  cf:	01 9f 05 15 5c 05    	add    %ebx,0x55c1505(%edi)
  d5:	05 3d bb e6 bb       	add    $0xbbe6bb3d,%eax
  da:	e6 bb                	out    %al,$0xbb
  dc:	e6 bb                	out    %al,$0xbb
  de:	e6 e5                	out    %al,$0xe5
  e0:	05 09 08 22 05       	add    $0x5220809,%eax
  e5:	05 83 05 0a bb       	add    $0xbb0a0583,%eax
  ea:	05 05 4a 05 15       	add    $0x15054a05,%eax
  ef:	d7                   	xlat   %ds:(%ebx)
  f0:	05 05 74 05 23       	add    $0x23057405,%eax
  f5:	d8 05 38 58 05 21    	fadds  0x21055838
  fb:	3c 05                	cmp    $0x5,%al
  fd:	20 67 05             	and    %ah,0x5(%edi)
 100:	26 ad                	lods   %es:(%esi),%eax
 102:	05 1a 91 05 1e       	add    $0x1e05911a,%eax
 107:	92                   	xchg   %eax,%edx
 108:	05 43 58 05 1c       	add    $0x1c055843,%eax
 10d:	3c 05                	cmp    $0x5,%al
 10f:	2c 59                	sub    $0x59,%al
 111:	05 55 58 05 2a       	add    $0x2a055855,%eax
 116:	3c 05                	cmp    $0x5,%al
 118:	01 59 05             	add    %ebx,0x5(%ecx)
 11b:	21 5a 05             	and    %ebx,0x5(%edx)
 11e:	05 3e e5 05 01       	add    $0x105e53e,%eax
 123:	f3 02 05 00 01 01 fa 	repz add 0xfa010100,%al
 12a:	00 00                	add    %al,(%eax)
 12c:	00 05 00 04 00 3c    	add    %al,0x3c000400
 132:	00 00                	add    %al,(%eax)
 134:	00 01                	add    %al,(%ecx)
 136:	01 01                	add    %eax,(%ecx)
 138:	fb                   	sti    
 139:	0e                   	push   %cs
 13a:	0d 00 01 01 01       	or     $0x1010100,%eax
 13f:	01 00                	add    %eax,(%eax)
 141:	00 00                	add    %al,(%eax)
 143:	01 00                	add    %eax,(%eax)
 145:	00 01                	add    %al,(%ecx)
 147:	01 01                	add    %eax,(%ecx)
 149:	1f                   	pop    %ds
 14a:	03 0e                	add    (%esi),%ecx
 14c:	00 00                	add    %al,(%eax)
 14e:	00 00                	add    %al,(%eax)
 150:	00 00                	add    %al,(%eax)
 152:	00 4b 00             	add    %cl,0x0(%ebx)
 155:	00 00                	add    %al,(%eax)
 157:	02 01                	add    (%ecx),%al
 159:	1f                   	pop    %ds
 15a:	02 0f                	add    (%edi),%cl
 15c:	04 98                	add    $0x98,%al
 15e:	00 00                	add    %al,(%eax)
 160:	00 00                	add    %al,(%eax)
 162:	9f                   	lahf   
 163:	00 00                	add    %al,(%eax)
 165:	00 01                	add    %al,(%ecx)
 167:	85 00                	test   %eax,(%eax)
 169:	00 00                	add    %al,(%eax)
 16b:	01 8b 00 00 00 02    	add    %ecx,0x2000000(%ebx)
 171:	05 3a 00 05 02       	add    $0x205003a,%eax
 176:	5e                   	pop    %esi
 177:	81 00 00 03 0c 01    	addl   $0x10c0300,(%eax)
 17d:	05 17 08 3d 05       	add    $0x53d0817,%eax
 182:	1c 74                	sbb    $0x74,%al
 184:	05 22 90 05 11       	add    $0x11059022,%eax
 189:	3c 05                	cmp    $0x5,%al
 18b:	01 67 05             	add    %esp,0x5(%edi)
 18e:	1d 5a 05 05 bb       	sbb    $0xbb05055a,%eax
 193:	05 14 08 84 05       	add    $0x5840814,%eax
 198:	09 9f 05 14 f4 a0    	or     %ebx,-0x5f0bebfb(%edi)
 19e:	05 45 ca 05 1f       	add    $0x1f05ca45,%eax
 1a3:	08 12                	or     %dl,(%edx)
 1a5:	05 45 02 27 12       	add    $0x12270245,%eax
 1aa:	05 36 2e 05 09       	add    $0x9052e36,%eax
 1af:	3d 05 18 c9 05       	cmp    $0x5c91805,%eax
 1b4:	0c 58                	or     $0x58,%al
 1b6:	05 18 59 05 0d       	add    $0xd055918,%eax
 1bb:	9f                   	lahf   
 1bc:	05 11 f6 05 08       	add    $0x805f611,%eax
 1c1:	74 05                	je     1c8 <_start-0x7a38>
 1c3:	09 67 59             	or     %esp,0x59(%edi)
 1c6:	05 01 f5 05 1d       	add    $0x1d05f501,%eax
 1cb:	68 05 0b 3d 05       	push   $0x53d0b05
 1d0:	16                   	push   %ss
 1d1:	2f                   	das    
 1d2:	05 09 74 e5 05       	add    $0x5e57409,%eax
 1d7:	0c 56                	or     $0x56,%al
 1d9:	05 11 74 05 01       	add    $0x1057411,%eax
 1de:	4e                   	dec    %esi
 1df:	05 16 68 05 01       	add    $0x1056816,%eax
 1e4:	14 05                	adc    $0x5,%al
 1e6:	12 30                	adc    (%eax),%dh
 1e8:	05 13 3d 05 05       	add    $0x5053d13,%eax
 1ed:	82 05 17 2f 05 09 82 	addb   $0x82,0x9052f17
 1f4:	05 1a 00 02 04       	add    $0x402001a,%eax
 1f9:	03 2f                	add    (%edi),%ebp
 1fb:	05 2b 00 02 04       	add    $0x402002b,%eax
 200:	03 08                	add    (%eax),%ecx
 202:	f2 05 2e 00 02 04    	repnz add $0x402002e,%eax
 208:	03 9d 05 20 00 02    	add    0x2002005(%ebp),%ebx
 20e:	04 01                	add    $0x1,%al
 210:	58                   	pop    %eax
 211:	05 29 00 02 04       	add    $0x4020029,%eax
 216:	02 73 05             	add    0x5(%ebx),%dh
 219:	1c 00                	sbb    $0x0,%al
 21b:	02 04 01             	add    (%ecx,%eax,1),%al
 21e:	58                   	pop    %eax
 21f:	05 01 79 02 06       	add    $0x6027901,%eax
 224:	00 01                	add    %al,(%ecx)
 226:	01                   	.byte 0x1

Disassembly of section .debug_line_str:

00000000 <.debug_line_str>:
   0:	73 6f                	jae    71 <_start-0x7b8f>
   2:	75 72                	jne    76 <_start-0x7b8a>
   4:	63 65 00             	arpl   %sp,0x0(%ebp)
   7:	62 6f 6f             	bound  %ebp,0x6f(%edi)
   a:	74 2e                	je     3a <_start-0x7bc6>
   c:	53                   	push   %ebx
   d:	00 2f                	add    %ch,(%edi)
   f:	68 6f 6d 65 2f       	push   $0x2f656d6f
  14:	75 73                	jne    89 <_start-0x7b77>
  16:	65 72 2f             	gs jb  48 <_start-0x7bb8>
  19:	78 38                	js     53 <_start-0x7bad>
  1b:	36 2d 70 72 6f 74    	ss sub $0x746f7270,%eax
  21:	65 63 74 65 64       	arpl   %si,%gs:0x64(%ebp,%eiz,2)
  26:	2d 6d 6f 64 65       	sub    $0x65646f6d,%eax
  2b:	2d 69 6d 70 6c       	sub    $0x6c706d69,%eax
  30:	65 6d                	gs insl (%dx),%es:(%edi)
  32:	65 6e                	outsb  %gs:(%esi),(%dx)
  34:	74 61                	je     97 <_start-0x7b69>
  36:	74 69                	je     a1 <_start-0x7b5f>
  38:	6f                   	outsl  %ds:(%esi),(%dx)
  39:	6e                   	outsb  %ds:(%esi),(%dx)
  3a:	2f                   	das    
  3b:	78 38                	js     75 <_start-0x7b8b>
  3d:	36 00 73 6f          	add    %dh,%ss:0x6f(%ebx)
  41:	75 72                	jne    b5 <_start-0x7b4b>
  43:	63 65 2f             	arpl   %sp,0x2f(%ebp)
  46:	6f                   	outsl  %ds:(%esi),(%dx)
  47:	73 2e                	jae    77 <_start-0x7b89>
  49:	63 00                	arpl   %ax,(%eax)
  4b:	2f                   	das    
  4c:	68 6f 6d 65 2f       	push   $0x2f656d6f
  51:	75 73                	jne    c6 <_start-0x7b3a>
  53:	65 72 2f             	gs jb  85 <_start-0x7b7b>
  56:	63 72 6f             	arpl   %si,0x6f(%edx)
  59:	73 73                	jae    ce <_start-0x7b32>
  5b:	2d 63 6f 6d 70       	sub    $0x706d6f63,%eax
  60:	69 6c 65 72 2f 6c 69 	imul   $0x62696c2f,0x72(%ebp,%eiz,2),%ebp
  67:	62 
  68:	2f                   	das    
  69:	67 63 63 2f          	arpl   %sp,0x2f(%bp,%di)
  6d:	69 36 38 36 2d 65    	imul   $0x652d3638,(%esi),%esi
  73:	6c                   	insb   (%dx),%es:(%edi)
  74:	66 2f                	data16 das 
  76:	31 31                	xor    %esi,(%ecx)
  78:	2e 32 2e             	xor    %cs:(%esi),%ch
  7b:	30 2f                	xor    %ch,(%edi)
  7d:	69 6e 63 6c 75 64 65 	imul   $0x6564756c,0x63(%esi),%ebp
  84:	00 74 74 79          	add    %dh,0x79(%esp,%esi,2)
  88:	2e 68 00 73 74 64    	cs push $0x64747300
  8e:	69 6e 74 2d 67 63 63 	imul   $0x6363672d,0x74(%esi),%ebp
  95:	2e 68 00 73 6f 75    	cs push $0x756f7300
  9b:	72 63                	jb     100 <_start-0x7b00>
  9d:	65 2f                	gs das 
  9f:	74 74                	je     115 <_start-0x7aeb>
  a1:	79 2e                	jns    d1 <_start-0x7b2f>
  a3:	63 00                	arpl   %ax,(%eax)

Disassembly of section .debug_info:

00000000 <.debug_info>:
   0:	21 00                	and    %eax,(%eax)
   2:	00 00                	add    %al,(%eax)
   4:	05 00 01 04 00       	add    $0x40100,%eax
   9:	00 00                	add    %al,(%eax)
   b:	00 01                	add    %al,(%ecx)
   d:	00 00                	add    %al,(%eax)
   f:	00 00                	add    %al,(%eax)
  11:	00 7c 00 00          	add    %bh,0x0(%eax,%eax,1)
  15:	d1 04 00             	roll   (%eax,%eax,1)
  18:	00 00                	add    %al,(%eax)
  1a:	00 07                	add    %al,(%edi)
  1c:	00 00                	add    %al,(%eax)
  1e:	00 38                	add    %bh,(%eax)
  20:	00 00                	add    %al,(%eax)
  22:	00 01                	add    %al,(%ecx)
  24:	80 51 02 00          	adcb   $0x0,0x2(%ecx)
  28:	00 05 00 01 04 14    	add    %al,0x14040100
  2e:	00 00                	add    %al,(%eax)
  30:	00 0f                	add    %cl,(%edi)
  32:	61                   	popa   
  33:	00 00                	add    %al,(%eax)
  35:	00 0c 3f             	add    %cl,(%edi,%edi,1)
  38:	00 00                	add    %al,(%eax)
  3a:	00 0e                	add    %cl,(%esi)
  3c:	00 00                	add    %al,(%eax)
  3e:	00 00                	add    %al,(%eax)
  40:	80 00 00             	addb   $0x0,(%eax)
  43:	5e                   	pop    %esi
  44:	01 00                	add    %eax,(%eax)
  46:	00 76 00             	add    %dh,0x0(%esi)
  49:	00 00                	add    %al,(%eax)
  4b:	03 52 00             	add    0x0(%edx),%edx
  4e:	00 00                	add    %al,(%eax)
  50:	02 01                	add    (%ecx),%al
  52:	18 32                	sbb    %dh,(%edx)
  54:	00 00                	add    %al,(%eax)
  56:	00 01                	add    %al,(%ecx)
  58:	02 07                	add    (%edi),%al
  5a:	f1                   	icebp  
  5b:	00 00                	add    %al,(%eax)
  5d:	00 01                	add    %al,(%ecx)
  5f:	01 06                	add    %eax,(%esi)
  61:	e5 00                	in     $0x0,%eax
  63:	00 00                	add    %al,(%eax)
  65:	01 02                	add    %eax,(%edx)
  67:	05 f8 01 00 00       	add    $0x1f8,%eax
  6c:	01 04 05 b9 01 00 00 	add    %eax,0x1b9(,%eax,1)
  73:	01 08                	add    %ecx,(%eax)
  75:	05 b4 01 00 00       	add    $0x1b4,%eax
  7a:	03 7e 01             	add    0x1(%esi),%edi
  7d:	00 00                	add    %al,(%eax)
  7f:	03 2e                	add    (%esi),%ebp
  81:	18 61 00             	sbb    %ah,0x0(%ecx)
  84:	00 00                	add    %al,(%eax)
  86:	01 01                	add    %eax,(%ecx)
  88:	08 e3                	or     %ah,%bl
  8a:	00 00                	add    %al,(%eax)
  8c:	00 03                	add    %al,(%ebx)
  8e:	02 02                	add    (%edx),%al
  90:	00 00                	add    %al,(%eax)
  92:	03 31                	add    (%ecx),%esi
  94:	19 32                	sbb    %esi,(%edx)
  96:	00 00                	add    %al,(%eax)
  98:	00 03                	add    %al,(%ebx)
  9a:	19 02                	sbb    %eax,(%edx)
  9c:	00 00                	add    %al,(%eax)
  9e:	03 34 19             	add    (%ecx,%ebx,1),%esi
  a1:	80 00 00             	addb   $0x0,(%eax)
  a4:	00 01                	add    %al,(%ecx)
  a6:	04 07                	add    $0x7,%al
  a8:	6c                   	insb   (%dx),%es:(%edi)
  a9:	01 00                	add    %eax,(%eax)
  ab:	00 01                	add    %al,(%ecx)
  ad:	08 07                	or     %al,(%edi)
  af:	67 01 00             	add    %eax,(%bx,%si)
  b2:	00 10                	add    %dl,(%eax)
  b4:	04 05                	add    $0x5,%al
  b6:	69 6e 74 00 01 04 07 	imul   $0x7040100,0x74(%esi),%ebp
  bd:	71 01                	jno    c0 <_start-0x7b40>
  bf:	00 00                	add    %al,(%eax)
  c1:	06                   	push   %es
  c2:	91                   	xchg   %eax,%ecx
  c3:	01 00                	add    %eax,(%eax)
  c5:	00 06                	add    %al,(%esi)
  c7:	d3 00                	roll   %cl,(%eax)
  c9:	00 00                	add    %al,(%eax)
  cb:	02 cd                	add    %ch,%cl
  cd:	01 00                	add    %eax,(%eax)
  cf:	00 07                	add    %al,(%edi)
  d1:	68 00 00 00 00       	push   $0x0
  d6:	02 3f                	add    (%edi),%bh
  d8:	01 00                	add    %eax,(%eax)
  da:	00 08                	add    %cl,(%eax)
  dc:	68 00 00 00 02       	push   $0x2000000
  e1:	02 2e                	add    (%esi),%ch
  e3:	01 00                	add    %eax,(%eax)
  e5:	00 09                	add    %cl,(%ecx)
  e7:	68 00 00 00 04       	push   $0x4000000
  ec:	02 12                	add    (%edx),%dl
  ee:	01 00                	add    %eax,(%eax)
  f0:	00 0a                	add    %cl,(%edx)
  f2:	68 00 00 00 06       	push   $0x6000000
  f7:	00 06                	add    %al,(%esi)
  f9:	44                   	inc    %esp
  fa:	00 00                	add    %al,(%eax)
  fc:	00 0d 0a 01 00 00    	add    %cl,0x10a
 102:	02 9f 01 00 00 0e    	add    0xe000001(%edi),%bl
 108:	68 00 00 00 00       	push   $0x0
 10d:	02 db                	add    %bl,%bl
 10f:	01 00                	add    %eax,(%eax)
 111:	00 0f                	add    %cl,(%edi)
 113:	68 00 00 00 02       	push   $0x2000000
 118:	02 04 01             	add    (%ecx,%eax,1),%al
 11b:	00 00                	add    %al,(%eax)
 11d:	10 68 00             	adc    %ch,0x0(%eax)
 120:	00 00                	add    %al,(%eax)
 122:	04 02                	add    $0x2,%al
 124:	c7 00 00 00 11 68    	movl   $0x68110000,(%eax)
 12a:	00 00                	add    %al,(%eax)
 12c:	00 06                	add    %al,(%esi)
 12e:	00 07                	add    %al,(%edi)
 130:	55                   	push   %ebp
 131:	00 00                	add    %al,(%eax)
 133:	00 1b                	add    %bl,(%ebx)
 135:	01 00                	add    %eax,(%eax)
 137:	00 08                	add    %cl,(%eax)
 139:	80 00 00             	addb   $0x0,(%eax)
 13c:	00 ff                	add    %bh,%bh
 13e:	0f 00 09             	str    (%ecx)
 141:	4c                   	dec    %esp
 142:	01 00                	add    %eax,(%eax)
 144:	00 14 09             	add    %dl,(%ecx,%ecx,1)
 147:	0a 01                	or     (%ecx),%al
 149:	00 00                	add    %al,(%eax)
 14b:	05 03 00 90 00       	add    $0x900003,%eax
 150:	00 07                	add    %al,(%edi)
 152:	74 00                	je     154 <_start-0x7aac>
 154:	00 00                	add    %al,(%eax)
 156:	3d 01 00 00 08       	cmp    $0x8000001,%eax
 15b:	80 00 00             	addb   $0x0,(%eax)
 15e:	00 ff                	add    %bh,%bh
 160:	03 00                	add    (%eax),%eax
 162:	11 30                	adc    %esi,(%eax)
 164:	02 00                	add    (%eax),%al
 166:	00 01                	add    %al,(%ecx)
 168:	16                   	push   %ss
 169:	11 2c 01             	adc    %ebp,(%ecx,%eax,1)
 16c:	00 00                	add    %al,(%eax)
 16e:	00 10                	add    %dl,(%eax)
 170:	05 03 00 a0 00       	add    $0xa00003,%eax
 175:	00 09                	add    %cl,(%ecx)
 177:	f1                   	icebp  
 178:	01 00                	add    %eax,(%eax)
 17a:	00 18                	add    %bl,(%eax)
 17c:	0a 2c 01             	or     (%ecx,%eax,1),%ch
 17f:	00 00                	add    %al,(%eax)
 181:	05 03 00 b0 00       	add    $0xb00003,%eax
 186:	00 0a                	add    %cl,(%edx)
 188:	9c                   	pushf  
 189:	00 00                	add    %al,(%eax)
 18b:	00 72 01             	add    %dh,0x1(%edx)
 18e:	00 00                	add    %al,(%eax)
 190:	0b 80 00 00 00 ff    	or     -0x1000000(%eax),%eax
 196:	00 0c aa             	add    %cl,(%edx,%ebp,4)
 199:	01 00                	add    %eax,(%eax)
 19b:	00 1c 62             	add    %bl,(%edx,%eiz,2)
 19e:	01 00                	add    %eax,(%eax)
 1a0:	00 05 03 00 c0 00    	add    %al,0xc00003
 1a6:	00 0a                	add    %cl,(%edx)
 1a8:	d3 00                	roll   %cl,(%eax)
 1aa:	00 00                	add    %al,(%eax)
 1ac:	92                   	xchg   %eax,%edx
 1ad:	01 00                	add    %eax,(%eax)
 1af:	00 0b                	add    %cl,(%ebx)
 1b1:	80 00 00             	addb   $0x0,(%eax)
 1b4:	00 ff                	add    %bh,%bh
 1b6:	00 0c 24             	add    %cl,(%esp)
 1b9:	01 00                	add    %eax,(%eax)
 1bb:	00 21                	add    %ah,(%ecx)
 1bd:	82 01 00             	addb   $0x0,(%ecx)
 1c0:	00 05 03 20 c8 00    	add    %al,0xc82003
 1c6:	00 0d 5b 01 00 00    	add    %cl,0x15b
 1cc:	17                   	pop    %ss
 1cd:	b2 01                	mov    $0x1,%dl
 1cf:	00 00                	add    %al,(%eax)
 1d1:	04 b2                	add    $0xb2,%al
 1d3:	01 00                	add    %eax,(%eax)
 1d5:	00 00                	add    %al,(%eax)
 1d7:	12 04 b8             	adc    (%eax,%edi,4),%al
 1da:	01 00                	add    %eax,(%eax)
 1dc:	00 01                	add    %al,(%ecx)
 1de:	01 06                	add    %eax,(%esi)
 1e0:	ec                   	in     (%dx),%al
 1e1:	00 00                	add    %al,(%eax)
 1e3:	00 0d 22 02 00 00    	add    %cl,0x222
 1e9:	15 d4 01 00 00       	adc    $0x1d4,%eax
 1ee:	04 26                	add    $0x26,%al
 1f0:	00 00                	add    %al,(%eax)
 1f2:	00 04 26             	add    %al,(%esi,%eiz,1)
 1f5:	00 00                	add    %al,(%eax)
 1f7:	00 00                	add    %al,(%eax)
 1f9:	13 d8                	adc    %eax,%ebx
 1fb:	00 00                	add    %al,(%eax)
 1fd:	00 01                	add    %al,(%ecx)
 1ff:	27                   	daa    
 200:	06                   	push   %es
 201:	0e                   	push   %cs
 202:	10 02                	adc    %al,(%edx)
 204:	00 00                	add    %al,(%eax)
 206:	47                   	inc    %edi
 207:	37                   	aaa    
 208:	81 00 00 27 00 00    	addl   $0x2700,(%eax)
 20e:	00 01                	add    %al,(%ecx)
 210:	9c                   	pushf  
 211:	ff 01                	incl   (%ecx)
 213:	00 00                	add    %al,(%eax)
 215:	05 86 01 00 00       	add    $0x186,%eax
 21a:	47                   	inc    %edi
 21b:	15 ff 01 00 00       	adc    $0x1ff,%eax
 220:	02 91 00 00 14 04    	add    0x4140000(%ecx),%dl
 226:	0e                   	push   %cs
 227:	09 01                	or     %eax,(%ecx)
 229:	00 00                	add    %al,(%eax)
 22b:	29 22                	sub    %esp,(%edx)
 22d:	80 00 00             	addb   $0x0,(%eax)
 230:	15 01 00 00 01       	adc    $0x1000001,%eax
 235:	9c                   	pushf  
 236:	25 02 00 00 15       	and    $0x15000002,%eax
 23b:	c2 01 00             	ret    $0x1
 23e:	00 01                	add    %al,(%ecx)
 240:	39 09                	cmp    %ecx,(%ecx)
 242:	8e 00                	mov    (%eax),%es
 244:	00 00                	add    %al,(%eax)
 246:	02 91 78 00 16 0b    	add    0xb160078(%ecx),%dl
 24c:	02 00                	add    (%eax),%al
 24e:	00 01                	add    %al,(%ecx)
 250:	23 06                	and    (%esi),%eax
 252:	00 80 00 00 22 00    	add    %al,0x220000(%eax)
 258:	00 00                	add    %al,(%eax)
 25a:	01 9c 05 d3 00 00 00 	add    %ebx,0xd3(%ebp,%eax,1)
 261:	23 13                	and    (%ebx),%edx
 263:	55                   	push   %ebp
 264:	00 00                	add    %al,(%eax)
 266:	00 02                	add    %al,(%edx)
 268:	91                   	xchg   %eax,%ecx
 269:	78 05                	js     270 <_start-0x7990>
 26b:	ec                   	in     (%dx),%al
 26c:	01 00                	add    %eax,(%eax)
 26e:	00 23                	add    %ah,(%ebx)
 270:	22 68 00             	and    0x0(%eax),%ch
 273:	00 00                	add    %al,(%eax)
 275:	02 91 74 00 00 aa    	add    -0x55ffff8c(%ecx),%dl
 27b:	01 00                	add    %eax,(%eax)
 27d:	00 05 00 01 04 7c    	add    %al,0x7c040100
 283:	01 00                	add    %eax,(%eax)
 285:	00 09                	add    %cl,(%ecx)
 287:	61                   	popa   
 288:	00 00                	add    %al,(%eax)
 28a:	00 0c 98             	add    %cl,(%eax,%ebx,4)
 28d:	00 00                	add    %al,(%eax)
 28f:	00 0e                	add    %cl,(%esi)
 291:	00 00                	add    %al,(%eax)
 293:	00 5e 81             	add    %bl,-0x7f(%esi)
 296:	00 00                	add    %al,(%eax)
 298:	b1 01                	mov    $0x1,%cl
 29a:	00 00                	add    %al,(%eax)
 29c:	29 01                	sub    %eax,(%ecx)
 29e:	00 00                	add    %al,(%eax)
 2a0:	04 52                	add    $0x52,%al
 2a2:	00 00                	add    %al,(%eax)
 2a4:	00 02                	add    %al,(%edx)
 2a6:	01 18                	add    %ebx,(%eax)
 2a8:	32 00                	xor    (%eax),%al
 2aa:	00 00                	add    %al,(%eax)
 2ac:	01 02                	add    %eax,(%edx)
 2ae:	07                   	pop    %es
 2af:	f1                   	icebp  
 2b0:	00 00                	add    %al,(%eax)
 2b2:	00 01                	add    %al,(%ecx)
 2b4:	01 06                	add    %eax,(%esi)
 2b6:	e5 00                	in     $0x0,%eax
 2b8:	00 00                	add    %al,(%eax)
 2ba:	01 02                	add    %eax,(%edx)
 2bc:	05 f8 01 00 00       	add    $0x1f8,%eax
 2c1:	01 04 05 b9 01 00 00 	add    %eax,0x1b9(,%eax,1)
 2c8:	01 08                	add    %ecx,(%eax)
 2ca:	05 b4 01 00 00       	add    $0x1b4,%eax
 2cf:	01 01                	add    %eax,(%ecx)
 2d1:	08 e3                	or     %ah,%bl
 2d3:	00 00                	add    %al,(%eax)
 2d5:	00 04 02             	add    %al,(%edx,%eax,1)
 2d8:	02 00                	add    (%eax),%al
 2da:	00 03                	add    %al,(%ebx)
 2dc:	31 19                	xor    %ebx,(%ecx)
 2de:	32 00                	xor    (%eax),%al
 2e0:	00 00                	add    %al,(%eax)
 2e2:	04 19                	add    $0x19,%al
 2e4:	02 00                	add    (%eax),%al
 2e6:	00 03                	add    %al,(%ebx)
 2e8:	34 19                	xor    $0x19,%al
 2ea:	74 00                	je     2ec <_start-0x7914>
 2ec:	00 00                	add    %al,(%eax)
 2ee:	01 04 07             	add    %eax,(%edi,%eax,1)
 2f1:	6c                   	insb   (%dx),%es:(%edi)
 2f2:	01 00                	add    %eax,(%eax)
 2f4:	00 01                	add    %al,(%ecx)
 2f6:	08 07                	or     %al,(%edi)
 2f8:	67 01 00             	add    %eax,(%bx,%si)
 2fb:	00 0a                	add    %cl,(%edx)
 2fd:	04 05                	add    $0x5,%al
 2ff:	69 6e 74 00 01 04 07 	imul   $0x7040100,0x74(%esi),%ebp
 306:	71 01                	jno    309 <_start-0x78f7>
 308:	00 00                	add    %al,(%eax)
 30a:	02 54 01 00          	add    0x0(%ecx,%eax,1),%dl
 30e:	00 07                	add    %al,(%edi)
 310:	11 a1 00 00 00 05    	adc    %esp,0x5000000(%ecx)
 316:	03 00                	add    (%eax),%eax
 318:	c8 00 00 05          	enter  $0x0,$0x5
 31c:	26 00 00             	add    %al,%es:(%eax)
 31f:	00 02                	add    %al,(%edx)
 321:	48                   	dec    %eax
 322:	02 00                	add    (%eax),%al
 324:	00 08                	add    %cl,(%eax)
 326:	10 26                	adc    %ah,(%esi)
 328:	00 00                	add    %al,(%eax)
 32a:	00 05 03 20 d0 00    	add    %al,0xd02003
 330:	00 02                	add    %al,(%edx)
 332:	54                   	push   %esp
 333:	02 00                	add    (%eax),%al
 335:	00 0a                	add    %cl,(%edx)
 337:	0a 68 00             	or     0x0(%eax),%ch
 33a:	00 00                	add    %al,(%eax)
 33c:	05 03 24 d0 00       	add    $0xd02403,%eax
 341:	00 02                	add    %al,(%edx)
 343:	77 02                	ja     347 <_start-0x78b9>
 345:	00 00                	add    %al,(%eax)
 347:	0b 0a                	or     (%edx),%ecx
 349:	5c                   	pop    %esp
 34a:	00 00                	add    %al,(%eax)
 34c:	00 05 03 28 d0 00    	add    %al,0xd02803
 352:	00 0b                	add    %cl,(%ebx)
 354:	5f                   	pop    %edi
 355:	02 00                	add    (%eax),%al
 357:	00 01                	add    %al,(%ecx)
 359:	35 06 af 82 00       	xor    $0x82af06,%eax
 35e:	00 60 00             	add    %ah,0x0(%eax)
 361:	00 00                	add    %al,(%eax)
 363:	01 9c 1c 01 00 00 06 	add    %ebx,0x6000001(%esp,%ebx,1)
 36a:	b2 82                	mov    $0x82,%dl
 36c:	00 00                	add    %al,(%eax)
 36e:	57                   	push   %edi
 36f:	00 00                	add    %al,(%eax)
 371:	00 07                	add    %al,(%edi)
 373:	78 00                	js     375 <_start-0x788b>
 375:	36 13 68 00          	adc    %ss:0x0(%eax),%ebp
 379:	00 00                	add    %al,(%eax)
 37b:	02 91 78 06 bc 82    	add    -0x7d43f988(%ecx),%dl
 381:	00 00                	add    %al,(%eax)
 383:	41                   	inc    %ecx
 384:	00 00                	add    %al,(%eax)
 386:	00 07                	add    %al,(%edi)
 388:	79 00                	jns    38a <_start-0x7876>
 38a:	37                   	aaa    
 38b:	17                   	pop    %ss
 38c:	68 00 00 00 02       	push   $0x2000000
 391:	91                   	xchg   %eax,%ecx
 392:	74 00                	je     394 <_start-0x786c>
 394:	00 00                	add    %al,(%eax)
 396:	0c 69                	or     $0x69,%al
 398:	02 00                	add    (%eax),%al
 39a:	00 01                	add    %al,(%ecx)
 39c:	31 06                	xor    %eax,(%esi)
 39e:	ad                   	lods   %ds:(%esi),%eax
 39f:	82 00 00             	addb   $0x0,(%eax)
 3a2:	02 00                	add    (%eax),%al
 3a4:	00 00                	add    %al,(%eax)
 3a6:	01 9c 08 5b 01 00 00 	add    %ebx,0x15b(%eax,%ecx,1)
 3ad:	2a 7c 82 00          	sub    0x0(%edx,%eax,4),%bh
 3b1:	00 31                	add    %dh,(%ecx)
 3b3:	00 00                	add    %al,(%eax)
 3b5:	00 01                	add    %al,(%ecx)
 3b7:	9c                   	pushf  
 3b8:	51                   	push   %ecx
 3b9:	01 00                	add    %eax,(%eax)
 3bb:	00 03                	add    %al,(%ebx)
 3bd:	73 74                	jae    433 <_start-0x77cd>
 3bf:	72 00                	jb     3c1 <_start-0x783f>
 3c1:	2a 18                	sub    (%eax),%bl
 3c3:	51                   	push   %ecx
 3c4:	01 00                	add    %eax,(%eax)
 3c6:	00 02                	add    %al,(%edx)
 3c8:	91                   	xchg   %eax,%ecx
 3c9:	00 00                	add    %al,(%eax)
 3cb:	05 56 01 00 00       	add    $0x156,%eax
 3d0:	01 01                	add    %eax,(%ecx)
 3d2:	06                   	push   %es
 3d3:	ec                   	in     (%dx),%al
 3d4:	00 00                	add    %al,(%eax)
 3d6:	00 08                	add    %cl,(%eax)
 3d8:	3b 02                	cmp    (%edx),%eax
 3da:	00 00                	add    %al,(%eax)
 3dc:	11 90 81 00 00 ec    	adc    %edx,-0x13ffff7f(%eax)
 3e2:	00 00                	add    %al,(%eax)
 3e4:	00 01                	add    %al,(%ecx)
 3e6:	9c                   	pushf  
 3e7:	80 01 00             	addb   $0x0,(%ecx)
 3ea:	00 03                	add    %al,(%ebx)
 3ec:	63 68 72             	arpl   %bp,0x72(%eax)
 3ef:	00 11                	add    %dl,(%ecx)
 3f1:	18 56 01             	sbb    %dl,0x1(%esi)
 3f4:	00 00                	add    %al,(%eax)
 3f6:	02 91 6c 00 0d 22    	add    0x220d006c(%ecx),%dl
 3fc:	02 00                	add    (%eax),%al
 3fe:	00 01                	add    %al,(%ecx)
 400:	0d 06 5e 81 00       	or     $0x815e06,%eax
 405:	00 32                	add    %dh,(%edx)
 407:	00 00                	add    %al,(%eax)
 409:	00 01                	add    %al,(%ecx)
 40b:	9c                   	pushf  
 40c:	03 66 67             	add    0x67(%esi),%esp
 40f:	00 0d 23 26 00 00    	add    %cl,0x2623
 415:	00 02                	add    %al,(%edx)
 417:	91                   	xchg   %eax,%ecx
 418:	78 03                	js     41d <_start-0x77e3>
 41a:	62 67 00             	bound  %esp,0x0(%edi)
 41d:	0d 36 26 00 00       	or     $0x2636,%eax
 422:	00 02                	add    %al,(%edx)
 424:	91                   	xchg   %eax,%ecx
 425:	74 00                	je     427 <_start-0x77d9>
	...

Disassembly of section .debug_abbrev:

00000000 <.debug_abbrev>:
   0:	01 11                	add    %edx,(%ecx)
   2:	00 10                	add    %dl,(%eax)
   4:	17                   	pop    %ss
   5:	11 01                	adc    %eax,(%ecx)
   7:	12 0f                	adc    (%edi),%cl
   9:	03 0e                	add    (%esi),%ecx
   b:	1b 0e                	sbb    (%esi),%ecx
   d:	25 0e 13 05 00       	and    $0x5130e,%eax
  12:	00 00                	add    %al,(%eax)
  14:	01 24 00             	add    %esp,(%eax,%eax,1)
  17:	0b 0b                	or     (%ebx),%ecx
  19:	3e 0b 03             	or     %ds:(%ebx),%eax
  1c:	0e                   	push   %cs
  1d:	00 00                	add    %al,(%eax)
  1f:	02 0d 00 03 0e 3a    	add    0x3a0e0300,%cl
  25:	21 01                	and    %eax,(%ecx)
  27:	3b 0b                	cmp    (%ebx),%ecx
  29:	39 21                	cmp    %esp,(%ecx)
  2b:	0e                   	push   %cs
  2c:	49                   	dec    %ecx
  2d:	13 38                	adc    (%eax),%edi
  2f:	0b 00                	or     (%eax),%eax
  31:	00 03                	add    %al,(%ebx)
  33:	16                   	push   %ss
  34:	00 03                	add    %al,(%ebx)
  36:	0e                   	push   %cs
  37:	3a 0b                	cmp    (%ebx),%cl
  39:	3b 0b                	cmp    (%ebx),%ecx
  3b:	39 0b                	cmp    %ecx,(%ebx)
  3d:	49                   	dec    %ecx
  3e:	13 00                	adc    (%eax),%eax
  40:	00 04 05 00 49 13 00 	add    %al,0x134900(,%eax,1)
  47:	00 05 05 00 03 0e    	add    %al,0xe030005
  4d:	3a 21                	cmp    (%ecx),%ah
  4f:	01 3b                	add    %edi,(%ebx)
  51:	0b 39                	or     (%ecx),%edi
  53:	0b 49 13             	or     0x13(%ecx),%ecx
  56:	02 18                	add    (%eax),%bl
  58:	00 00                	add    %al,(%eax)
  5a:	06                   	push   %es
  5b:	13 01                	adc    (%ecx),%eax
  5d:	03 0e                	add    (%esi),%ecx
  5f:	0b 21                	or     (%ecx),%esp
  61:	08 88 01 21 08 3a    	or     %cl,0x3a082101(%eax)
  67:	21 01                	and    %eax,(%ecx)
  69:	3b 0b                	cmp    (%ebx),%ecx
  6b:	39 21                	cmp    %esp,(%ecx)
  6d:	08 01                	or     %al,(%ecx)
  6f:	13 00                	adc    (%eax),%eax
  71:	00 07                	add    %al,(%edi)
  73:	01 01                	add    %eax,(%ecx)
  75:	49                   	dec    %ecx
  76:	13 01                	adc    (%ecx),%eax
  78:	13 00                	adc    (%eax),%eax
  7a:	00 08                	add    %cl,(%eax)
  7c:	21 00                	and    %eax,(%eax)
  7e:	49                   	dec    %ecx
  7f:	13 2f                	adc    (%edi),%ebp
  81:	05 00 00 09 34       	add    $0x34090000,%eax
  86:	00 03                	add    %al,(%ebx)
  88:	0e                   	push   %cs
  89:	3a 21                	cmp    (%ecx),%ah
  8b:	01 3b                	add    %edi,(%ebx)
  8d:	0b 39                	or     (%ecx),%edi
  8f:	0b 49 13             	or     0x13(%ecx),%ecx
  92:	3f                   	aas    
  93:	19 88 01 21 80 20    	sbb    %ecx,0x20802101(%eax)
  99:	02 18                	add    (%eax),%bl
  9b:	00 00                	add    %al,(%eax)
  9d:	0a 01                	or     (%ecx),%al
  9f:	01 49 13             	add    %ecx,0x13(%ecx)
  a2:	88 01                	mov    %al,(%ecx)
  a4:	21 08                	and    %ecx,(%eax)
  a6:	01 13                	add    %edx,(%ebx)
  a8:	00 00                	add    %al,(%eax)
  aa:	0b 21                	or     (%ecx),%esp
  ac:	00 49 13             	add    %cl,0x13(%ecx)
  af:	2f                   	das    
  b0:	0b 00                	or     (%eax),%eax
  b2:	00 0c 34             	add    %cl,(%esp,%esi,1)
  b5:	00 03                	add    %al,(%ebx)
  b7:	0e                   	push   %cs
  b8:	3a 21                	cmp    (%ecx),%ah
  ba:	01 3b                	add    %edi,(%ebx)
  bc:	0b 39                	or     (%ecx),%edi
  be:	21 16                	and    %edx,(%esi)
  c0:	49                   	dec    %ecx
  c1:	13 3f                	adc    (%edi),%edi
  c3:	19 02                	sbb    %eax,(%edx)
  c5:	18 00                	sbb    %al,(%eax)
  c7:	00 0d 2e 01 3f 19    	add    %cl,0x193f012e
  cd:	03 0e                	add    (%esi),%ecx
  cf:	3a 21                	cmp    (%ecx),%ah
  d1:	02 3b                	add    (%ebx),%bh
  d3:	0b 39                	or     (%ecx),%edi
  d5:	21 06                	and    %eax,(%esi)
  d7:	27                   	daa    
  d8:	19 3c 19             	sbb    %edi,(%ecx,%ebx,1)
  db:	01 13                	add    %edx,(%ebx)
  dd:	00 00                	add    %al,(%eax)
  df:	0e                   	push   %cs
  e0:	2e 01 3f             	add    %edi,%cs:(%edi)
  e3:	19 03                	sbb    %eax,(%ebx)
  e5:	0e                   	push   %cs
  e6:	3a 21                	cmp    (%ecx),%ah
  e8:	01 3b                	add    %edi,(%ebx)
  ea:	0b 39                	or     (%ecx),%edi
  ec:	21 06                	and    %eax,(%esi)
  ee:	27                   	daa    
  ef:	19 11                	sbb    %edx,(%ecx)
  f1:	01 12                	add    %edx,(%edx)
  f3:	06                   	push   %es
  f4:	40                   	inc    %eax
  f5:	18 7c 19 01          	sbb    %bh,0x1(%ecx,%ebx,1)
  f9:	13 00                	adc    (%eax),%eax
  fb:	00 0f                	add    %cl,(%edi)
  fd:	11 01                	adc    %eax,(%ecx)
  ff:	25 0e 13 0b 03       	and    $0x30b130e,%eax
 104:	1f                   	pop    %ds
 105:	1b 1f                	sbb    (%edi),%ebx
 107:	11 01                	adc    %eax,(%ecx)
 109:	12 06                	adc    (%esi),%al
 10b:	10 17                	adc    %dl,(%edi)
 10d:	00 00                	add    %al,(%eax)
 10f:	10 24 00             	adc    %ah,(%eax,%eax,1)
 112:	0b 0b                	or     (%ebx),%ecx
 114:	3e 0b 03             	or     %ds:(%ebx),%eax
 117:	08 00                	or     %al,(%eax)
 119:	00 11                	add    %dl,(%ecx)
 11b:	34 00                	xor    $0x0,%al
 11d:	03 0e                	add    (%esi),%ecx
 11f:	3a 0b                	cmp    (%ebx),%cl
 121:	3b 0b                	cmp    (%ebx),%ecx
 123:	39 0b                	cmp    %ecx,(%ebx)
 125:	49                   	dec    %ecx
 126:	13 88 01 05 02 18    	adc    0x18020501(%eax),%ecx
 12c:	00 00                	add    %al,(%eax)
 12e:	12 0f                	adc    (%edi),%cl
 130:	00 0b                	add    %cl,(%ebx)
 132:	0b 49 13             	or     0x13(%ecx),%ecx
 135:	00 00                	add    %al,(%eax)
 137:	13 2e                	adc    (%esi),%ebp
 139:	00 3f                	add    %bh,(%edi)
 13b:	19 03                	sbb    %eax,(%ebx)
 13d:	0e                   	push   %cs
 13e:	3a 0b                	cmp    (%ebx),%cl
 140:	3b 0b                	cmp    (%ebx),%ecx
 142:	39 0b                	cmp    %ecx,(%ebx)
 144:	27                   	daa    
 145:	19 3c 19             	sbb    %edi,(%ecx,%ebx,1)
 148:	00 00                	add    %al,(%eax)
 14a:	14 0f                	adc    $0xf,%al
 14c:	00 0b                	add    %cl,(%ebx)
 14e:	0b 00                	or     (%eax),%eax
 150:	00 15 34 00 03 0e    	add    %dl,0xe030034
 156:	3a 0b                	cmp    (%ebx),%cl
 158:	3b 0b                	cmp    (%ebx),%ecx
 15a:	39 0b                	cmp    %ecx,(%ebx)
 15c:	49                   	dec    %ecx
 15d:	13 02                	adc    (%edx),%eax
 15f:	18 00                	sbb    %al,(%eax)
 161:	00 16                	add    %dl,(%esi)
 163:	2e 01 3f             	add    %edi,%cs:(%edi)
 166:	19 03                	sbb    %eax,(%ebx)
 168:	0e                   	push   %cs
 169:	3a 0b                	cmp    (%ebx),%cl
 16b:	3b 0b                	cmp    (%ebx),%ecx
 16d:	39 0b                	cmp    %ecx,(%ebx)
 16f:	27                   	daa    
 170:	19 11                	sbb    %edx,(%ecx)
 172:	01 12                	add    %edx,(%edx)
 174:	06                   	push   %es
 175:	40                   	inc    %eax
 176:	18 7a 19             	sbb    %bh,0x19(%edx)
 179:	00 00                	add    %al,(%eax)
 17b:	00 01                	add    %al,(%ecx)
 17d:	24 00                	and    $0x0,%al
 17f:	0b 0b                	or     (%ebx),%ecx
 181:	3e 0b 03             	or     %ds:(%ebx),%eax
 184:	0e                   	push   %cs
 185:	00 00                	add    %al,(%eax)
 187:	02 34 00             	add    (%eax,%eax,1),%dh
 18a:	03 0e                	add    (%esi),%ecx
 18c:	3a 21                	cmp    (%ecx),%ah
 18e:	01 3b                	add    %edi,(%ebx)
 190:	0b 39                	or     (%ecx),%edi
 192:	0b 49 13             	or     0x13(%ecx),%ecx
 195:	3f                   	aas    
 196:	19 02                	sbb    %eax,(%edx)
 198:	18 00                	sbb    %al,(%eax)
 19a:	00 03                	add    %al,(%ebx)
 19c:	05 00 03 08 3a       	add    $0x3a080300,%eax
 1a1:	21 01                	and    %eax,(%ecx)
 1a3:	3b 0b                	cmp    (%ebx),%ecx
 1a5:	39 0b                	cmp    %ecx,(%ebx)
 1a7:	49                   	dec    %ecx
 1a8:	13 02                	adc    (%edx),%eax
 1aa:	18 00                	sbb    %al,(%eax)
 1ac:	00 04 16             	add    %al,(%esi,%edx,1)
 1af:	00 03                	add    %al,(%ebx)
 1b1:	0e                   	push   %cs
 1b2:	3a 0b                	cmp    (%ebx),%cl
 1b4:	3b 0b                	cmp    (%ebx),%ecx
 1b6:	39 0b                	cmp    %ecx,(%ebx)
 1b8:	49                   	dec    %ecx
 1b9:	13 00                	adc    (%eax),%eax
 1bb:	00 05 0f 00 0b 21    	add    %al,0x210b000f
 1c1:	04 49                	add    $0x49,%al
 1c3:	13 00                	adc    (%eax),%eax
 1c5:	00 06                	add    %al,(%esi)
 1c7:	0b 01                	or     (%ecx),%eax
 1c9:	11 01                	adc    %eax,(%ecx)
 1cb:	12 06                	adc    (%esi),%al
 1cd:	00 00                	add    %al,(%eax)
 1cf:	07                   	pop    %es
 1d0:	34 00                	xor    $0x0,%al
 1d2:	03 08                	add    (%eax),%ecx
 1d4:	3a 21                	cmp    (%ecx),%ah
 1d6:	01 3b                	add    %edi,(%ebx)
 1d8:	0b 39                	or     (%ecx),%edi
 1da:	0b 49 13             	or     0x13(%ecx),%ecx
 1dd:	02 18                	add    (%eax),%bl
 1df:	00 00                	add    %al,(%eax)
 1e1:	08 2e                	or     %ch,(%esi)
 1e3:	01 3f                	add    %edi,(%edi)
 1e5:	19 03                	sbb    %eax,(%ebx)
 1e7:	0e                   	push   %cs
 1e8:	3a 21                	cmp    (%ecx),%ah
 1ea:	01 3b                	add    %edi,(%ebx)
 1ec:	0b 39                	or     (%ecx),%edi
 1ee:	21 06                	and    %eax,(%esi)
 1f0:	27                   	daa    
 1f1:	19 11                	sbb    %edx,(%ecx)
 1f3:	01 12                	add    %edx,(%edx)
 1f5:	06                   	push   %es
 1f6:	40                   	inc    %eax
 1f7:	18 7c 19 01          	sbb    %bh,0x1(%ecx,%ebx,1)
 1fb:	13 00                	adc    (%eax),%eax
 1fd:	00 09                	add    %cl,(%ecx)
 1ff:	11 01                	adc    %eax,(%ecx)
 201:	25 0e 13 0b 03       	and    $0x30b130e,%eax
 206:	1f                   	pop    %ds
 207:	1b 1f                	sbb    (%edi),%ebx
 209:	11 01                	adc    %eax,(%ecx)
 20b:	12 06                	adc    (%esi),%al
 20d:	10 17                	adc    %dl,(%edi)
 20f:	00 00                	add    %al,(%eax)
 211:	0a 24 00             	or     (%eax,%eax,1),%ah
 214:	0b 0b                	or     (%ebx),%ecx
 216:	3e 0b 03             	or     %ds:(%ebx),%eax
 219:	08 00                	or     %al,(%eax)
 21b:	00 0b                	add    %cl,(%ebx)
 21d:	2e 01 3f             	add    %edi,%cs:(%edi)
 220:	19 03                	sbb    %eax,(%ebx)
 222:	0e                   	push   %cs
 223:	3a 0b                	cmp    (%ebx),%cl
 225:	3b 0b                	cmp    (%ebx),%ecx
 227:	39 0b                	cmp    %ecx,(%ebx)
 229:	11 01                	adc    %eax,(%ecx)
 22b:	12 06                	adc    (%esi),%al
 22d:	40                   	inc    %eax
 22e:	18 7a 19             	sbb    %bh,0x19(%edx)
 231:	01 13                	add    %edx,(%ebx)
 233:	00 00                	add    %al,(%eax)
 235:	0c 2e                	or     $0x2e,%al
 237:	00 3f                	add    %bh,(%edi)
 239:	19 03                	sbb    %eax,(%ebx)
 23b:	0e                   	push   %cs
 23c:	3a 0b                	cmp    (%ebx),%cl
 23e:	3b 0b                	cmp    (%ebx),%ecx
 240:	39 0b                	cmp    %ecx,(%ebx)
 242:	11 01                	adc    %eax,(%ecx)
 244:	12 06                	adc    (%esi),%al
 246:	40                   	inc    %eax
 247:	18 7a 19             	sbb    %bh,0x19(%edx)
 24a:	00 00                	add    %al,(%eax)
 24c:	0d 2e 01 3f 19       	or     $0x193f012e,%eax
 251:	03 0e                	add    (%esi),%ecx
 253:	3a 0b                	cmp    (%ebx),%cl
 255:	3b 0b                	cmp    (%ebx),%ecx
 257:	39 0b                	cmp    %ecx,(%ebx)
 259:	27                   	daa    
 25a:	19 11                	sbb    %edx,(%ecx)
 25c:	01 12                	add    %edx,(%edx)
 25e:	06                   	push   %es
 25f:	40                   	inc    %eax
 260:	18 7a 19             	sbb    %bh,0x19(%edx)
 263:	00 00                	add    %al,(%eax)
	...

Disassembly of section .debug_aranges:

00000000 <.debug_aranges>:
   0:	1c 00                	sbb    $0x0,%al
   2:	00 00                	add    %al,(%eax)
   4:	02 00                	add    (%eax),%al
   6:	00 00                	add    %al,(%eax)
   8:	00 00                	add    %al,(%eax)
   a:	04 00                	add    $0x0,%al
   c:	00 00                	add    %al,(%eax)
   e:	00 00                	add    %al,(%eax)
  10:	00 7c 00 00          	add    %bh,0x0(%eax,%eax,1)
  14:	51                   	push   %ecx
  15:	02 00                	add    (%eax),%al
	...
  1f:	00 1c 00             	add    %bl,(%eax,%eax,1)
  22:	00 00                	add    %al,(%eax)
  24:	02 00                	add    (%eax),%al
  26:	25 00 00 00 04       	and    $0x4000000,%eax
  2b:	00 00                	add    %al,(%eax)
  2d:	00 00                	add    %al,(%eax)
  2f:	00 00                	add    %al,(%eax)
  31:	80 00 00             	addb   $0x0,(%eax)
  34:	5e                   	pop    %esi
  35:	01 00                	add    %eax,(%eax)
	...
  3f:	00 1c 00             	add    %bl,(%eax,%eax,1)
  42:	00 00                	add    %al,(%eax)
  44:	02 00                	add    (%eax),%al
  46:	7a 02                	jp     4a <_start-0x7bb6>
  48:	00 00                	add    %al,(%eax)
  4a:	04 00                	add    $0x0,%al
  4c:	00 00                	add    %al,(%eax)
  4e:	00 00                	add    %al,(%eax)
  50:	5e                   	pop    %esi
  51:	81 00 00 b1 01 00    	addl   $0x1b100,(%eax)
	...

Disassembly of section .debug_str:

00000000 <.debug_str>:
   0:	62 6f 6f             	bound  %ebp,0x6f(%edi)
   3:	74 2e                	je     33 <_start-0x7bcd>
   5:	53                   	push   %ebx
   6:	00 2f                	add    %ch,(%edi)
   8:	68 6f 6d 65 2f       	push   $0x2f656d6f
   d:	75 73                	jne    82 <_start-0x7b7e>
   f:	65 72 2f             	gs jb  41 <_start-0x7bbf>
  12:	78 38                	js     4c <_start-0x7bb4>
  14:	36 2d 70 72 6f 74    	ss sub $0x746f7270,%eax
  1a:	65 63 74 65 64       	arpl   %si,%gs:0x64(%ebp,%eiz,2)
  1f:	2d 6d 6f 64 65       	sub    $0x65646f6d,%eax
  24:	2d 69 6d 70 6c       	sub    $0x6c706d69,%eax
  29:	65 6d                	gs insl (%dx),%es:(%edi)
  2b:	65 6e                	outsb  %gs:(%esi),(%dx)
  2d:	74 61                	je     90 <_start-0x7b70>
  2f:	74 69                	je     9a <_start-0x7b66>
  31:	6f                   	outsl  %ds:(%esi),(%dx)
  32:	6e                   	outsb  %ds:(%esi),(%dx)
  33:	2f                   	das    
  34:	78 38                	js     6e <_start-0x7b92>
  36:	36 00 47 4e          	add    %al,%ss:0x4e(%edi)
  3a:	55                   	push   %ebp
  3b:	20 41 53             	and    %al,0x53(%ecx)
  3e:	20 32                	and    %dh,(%edx)
  40:	2e 33 37             	xor    %cs:(%edi),%esi
  43:	00 49 44             	add    %cl,0x44(%ecx)
  46:	54                   	push   %esp
  47:	44                   	inc    %esp
  48:	65 73 63             	gs jae ae <_start-0x7b52>
  4b:	72 69                	jb     b6 <_start-0x7b4a>
  4d:	70 74                	jo     c3 <_start-0x7b3d>
  4f:	6f                   	outsl  %ds:(%esi),(%dx)
  50:	72 00                	jb     52 <_start-0x7bae>
  52:	76 67                	jbe    bb <_start-0x7b45>
  54:	61                   	popa   
  55:	5f                   	pop    %edi
  56:	61                   	popa   
  57:	74 72                	je     cb <_start-0x7b35>
  59:	72 69                	jb     c4 <_start-0x7b3c>
  5b:	62 75 74             	bound  %esi,0x74(%ebp)
  5e:	65 73 00             	gs jae 61 <_start-0x7b9f>
  61:	47                   	inc    %edi
  62:	4e                   	dec    %esi
  63:	55                   	push   %ebp
  64:	20 43 39             	and    %al,0x39(%ebx)
  67:	39 20                	cmp    %esp,(%eax)
  69:	31 31                	xor    %esi,(%ecx)
  6b:	2e 32 2e             	xor    %cs:(%esi),%ch
  6e:	30 20                	xor    %ah,(%eax)
  70:	2d 6d 74 75 6e       	sub    $0x6e75746d,%eax
  75:	65 3d 67 65 6e 65    	gs cmp $0x656e6567,%eax
  7b:	72 69                	jb     e6 <_start-0x7b1a>
  7d:	63 20                	arpl   %sp,(%eax)
  7f:	2d 6d 61 72 63       	sub    $0x6372616d,%eax
  84:	68 3d 70 65 6e       	push   $0x6e65703d
  89:	74 69                	je     f4 <_start-0x7b0c>
  8b:	75 6d                	jne    fa <_start-0x7b06>
  8d:	70 72                	jo     101 <_start-0x7aff>
  8f:	6f                   	outsl  %ds:(%esi),(%dx)
  90:	20 2d 67 20 2d 4f    	and    %ch,0x4f2d2067
  96:	30 20                	xor    %ah,(%eax)
  98:	2d 73 74 64 3d       	sub    $0x3d647473,%eax
  9d:	67 6e                	outsb  %ds:(%si),(%dx)
  9f:	75 39                	jne    da <_start-0x7b26>
  a1:	39 20                	cmp    %esp,(%eax)
  a3:	2d 66 66 72 65       	sub    $0x65726666,%eax
  a8:	65 73 74             	gs jae 11f <_start-0x7ae1>
  ab:	61                   	popa   
  ac:	6e                   	outsb  %ds:(%esi),(%dx)
  ad:	64 69 6e 67 20 2d 66 	imul   $0x6f662d20,%fs:0x67(%esi),%ebp
  b4:	6f 
  b5:	6d                   	insl   (%dx),%es:(%edi)
  b6:	69 74 2d 66 72 61 6d 	imul   $0x656d6172,0x66(%ebp,%ebp,1),%esi
  bd:	65 
  be:	2d 70 6f 69 6e       	sub    $0x6e696f70,%eax
  c3:	74 65                	je     12a <_start-0x7ad6>
  c5:	72 00                	jb     c7 <_start-0x7b39>
  c7:	6f                   	outsl  %ds:(%esi),(%dx)
  c8:	66 66 73 65          	data16 data16 jae 131 <_start-0x7acf>
  cc:	74 5f                	je     12d <_start-0x7ad3>
  ce:	68 69 67 68 00       	push   $0x686769
  d3:	64 61                	fs popa 
  d5:	74 61                	je     138 <_start-0x7ac8>
  d7:	00 74 69 6d          	add    %dh,0x6d(%ecx,%ebp,2)
  db:	65 72 5f             	gs jb  13d <_start-0x7ac3>
  de:	69 6e 69 74 00 75 6e 	imul   $0x6e750074,0x69(%esi),%ebp
  e5:	73 69                	jae    150 <_start-0x7ab0>
  e7:	67 6e                	outsb  %ds:(%si),(%dx)
  e9:	65 64 20 63 68       	gs and %ah,%fs:0x68(%ebx)
  ee:	61                   	popa   
  ef:	72 00                	jb     f1 <_start-0x7b0f>
  f1:	73 68                	jae    15b <_start-0x7aa5>
  f3:	6f                   	outsl  %ds:(%esi),(%dx)
  f4:	72 74                	jb     16a <_start-0x7a96>
  f6:	20 75 6e             	and    %dh,0x6e(%ebp)
  f9:	73 69                	jae    164 <_start-0x7a9c>
  fb:	67 6e                	outsb  %ds:(%si),(%dx)
  fd:	65 64 20 69 6e       	gs and %ch,%fs:0x6e(%ecx)
 102:	74 00                	je     104 <_start-0x7afc>
 104:	61                   	popa   
 105:	74 74                	je     17b <_start-0x7a85>
 107:	72 00                	jb     109 <_start-0x7af7>
 109:	5f                   	pop    %edi
 10a:	6f                   	outsl  %ds:(%esi),(%dx)
 10b:	73 5f                	jae    16c <_start-0x7a94>
 10d:	69 6e 69 74 00 62 61 	imul   $0x61620074,0x69(%esi),%ebp
 114:	73 65                	jae    17b <_start-0x7a85>
 116:	5f                   	pop    %edi
 117:	61                   	popa   
 118:	64 64 72 65          	fs fs jb 181 <_start-0x7a7f>
 11c:	73 73                	jae    191 <_start-0x7a6f>
 11e:	5f                   	pop    %edi
 11f:	68 69 67 68 00       	push   $0x686769
 124:	69 64 74 5f 74 61 62 	imul   $0x6c626174,0x5f(%esp,%esi,2),%esp
 12b:	6c 
 12c:	65 00 62 61          	add    %ah,%gs:0x61(%edx)
 130:	73 65                	jae    197 <_start-0x7a69>
 132:	5f                   	pop    %edi
 133:	61                   	popa   
 134:	64 64 72 65          	fs fs jb 19d <_start-0x7a63>
 138:	73 73                	jae    1ad <_start-0x7a53>
 13a:	5f                   	pop    %edi
 13b:	6c                   	insb   (%dx),%es:(%edi)
 13c:	6f                   	outsl  %ds:(%esi),(%dx)
 13d:	77 00                	ja     13f <_start-0x7ac1>
 13f:	62 61 73             	bound  %esp,0x73(%ecx)
 142:	65 5f                	gs pop %edi
 144:	61                   	popa   
 145:	64 64 72 65          	fs fs jb 1ae <_start-0x7a52>
 149:	73 73                	jae    1be <_start-0x7a42>
 14b:	00 6d 61             	add    %ch,0x61(%ebp)
 14e:	70 5f                	jo     1af <_start-0x7a51>
 150:	70 68                	jo     1ba <_start-0x7a46>
 152:	79 5f                	jns    1b3 <_start-0x7a4d>
 154:	62 75 66             	bound  %esi,0x66(%ebp)
 157:	66 65 72 00          	data16 gs jb 15b <_start-0x7aa5>
 15b:	74 74                	je     1d1 <_start-0x7a2f>
 15d:	79 5f                	jns    1be <_start-0x7a42>
 15f:	70 75                	jo     1d6 <_start-0x7a2a>
 161:	74 5f                	je     1c2 <_start-0x7a3e>
 163:	73 74                	jae    1d9 <_start-0x7a27>
 165:	72 00                	jb     167 <_start-0x7a99>
 167:	6c                   	insb   (%dx),%es:(%edi)
 168:	6f                   	outsl  %ds:(%esi),(%dx)
 169:	6e                   	outsb  %ds:(%esi),(%dx)
 16a:	67 20 6c 6f          	and    %ch,0x6f(%si)
 16e:	6e                   	outsb  %ds:(%esi),(%dx)
 16f:	67 20 75 6e          	and    %dh,0x6e(%di)
 173:	73 69                	jae    1de <_start-0x7a22>
 175:	67 6e                	outsb  %ds:(%si),(%dx)
 177:	65 64 20 69 6e       	gs and %ch,%fs:0x6e(%ecx)
 17c:	74 00                	je     17e <_start-0x7a82>
 17e:	75 69                	jne    1e9 <_start-0x7a17>
 180:	6e                   	outsb  %ds:(%esi),(%dx)
 181:	74 38                	je     1bb <_start-0x7a45>
 183:	5f                   	pop    %edi
 184:	74 00                	je     186 <_start-0x7a7a>
 186:	69 6e 66 6f 5f 74 61 	imul   $0x61745f6f,0x66(%esi),%ebp
 18d:	62 6c 65 00          	bound  %ebp,0x0(%ebp,%eiz,2)
 191:	47                   	inc    %edi
 192:	44                   	inc    %esp
 193:	54                   	push   %esp
 194:	44                   	inc    %esp
 195:	65 73 63             	gs jae 1fb <_start-0x7a05>
 198:	72 69                	jb     203 <_start-0x79fd>
 19a:	70 74                	jo     210 <_start-0x79f0>
 19c:	6f                   	outsl  %ds:(%esi),(%dx)
 19d:	72 00                	jb     19f <_start-0x7a61>
 19f:	6f                   	outsl  %ds:(%esi),(%dx)
 1a0:	66 66 73 65          	data16 data16 jae 209 <_start-0x79f7>
 1a4:	74 5f                	je     205 <_start-0x79fb>
 1a6:	6c                   	insb   (%dx),%es:(%edi)
 1a7:	6f                   	outsl  %ds:(%esi),(%dx)
 1a8:	77 00                	ja     1aa <_start-0x7a56>
 1aa:	67 64 74 5f          	addr16 fs je 20d <_start-0x79f3>
 1ae:	74 61                	je     211 <_start-0x79ef>
 1b0:	62 6c 65 00          	bound  %ebp,0x0(%ebp,%eiz,2)
 1b4:	6c                   	insb   (%dx),%es:(%edi)
 1b5:	6f                   	outsl  %ds:(%esi),(%dx)
 1b6:	6e                   	outsb  %ds:(%esi),(%dx)
 1b7:	67 20 6c 6f          	and    %ch,0x6f(%si)
 1bb:	6e                   	outsb  %ds:(%esi),(%dx)
 1bc:	67 20 69 6e          	and    %ch,0x6e(%bx,%di)
 1c0:	74 00                	je     1c2 <_start-0x7a3e>
 1c2:	74 69                	je     22d <_start-0x79d3>
 1c4:	6d                   	insl   (%dx),%es:(%edi)
 1c5:	65 5f                	gs pop %edi
 1c7:	76 61                	jbe    22a <_start-0x79d6>
 1c9:	6c                   	insb   (%dx),%es:(%edi)
 1ca:	75 65                	jne    231 <_start-0x79cf>
 1cc:	00 73 65             	add    %dh,0x65(%ebx)
 1cf:	67 6d                	insl   (%dx),%es:(%di)
 1d1:	65 6e                	outsb  %gs:(%esi),(%dx)
 1d3:	74 5f                	je     234 <_start-0x79cc>
 1d5:	6c                   	insb   (%dx),%es:(%edi)
 1d6:	69 6d 69 74 00 73 65 	imul   $0x65730074,0x69(%ebp),%ebp
 1dd:	67 6d                	insl   (%dx),%es:(%di)
 1df:	65 6e                	outsb  %gs:(%esi),(%dx)
 1e1:	74 5f                	je     242 <_start-0x79be>
 1e3:	73 65                	jae    24a <_start-0x79b6>
 1e5:	6c                   	insb   (%dx),%es:(%edi)
 1e6:	65 63 74 6f 72       	arpl   %si,%gs:0x72(%edi,%ebp,2)
 1eb:	00 70 6f             	add    %dh,0x6f(%eax)
 1ee:	72 74                	jb     264 <_start-0x799c>
 1f0:	00 70 67             	add    %dh,0x67(%eax)
 1f3:	5f                   	pop    %edi
 1f4:	64 69 72 00 73 68 6f 	imul   $0x726f6873,%fs:0x0(%edx),%esi
 1fb:	72 
 1fc:	74 20                	je     21e <_start-0x79e2>
 1fe:	69 6e 74 00 75 69 6e 	imul   $0x6e697500,0x74(%esi),%ebp
 205:	74 31                	je     238 <_start-0x79c8>
 207:	36 5f                	ss pop %edi
 209:	74 00                	je     20b <_start-0x79f5>
 20b:	6f                   	outsl  %ds:(%esi),(%dx)
 20c:	75 74                	jne    282 <_start-0x797e>
 20e:	62 00                	bound  %eax,(%eax)
 210:	5f                   	pop    %edi
 211:	6f                   	outsl  %ds:(%esi),(%dx)
 212:	73 5f                	jae    273 <_start-0x798d>
 214:	6d                   	insl   (%dx),%es:(%edi)
 215:	61                   	popa   
 216:	69 6e 00 75 69 6e 74 	imul   $0x746e6975,0x0(%esi),%ebp
 21d:	33 32                	xor    (%edx),%esi
 21f:	5f                   	pop    %edi
 220:	74 00                	je     222 <_start-0x79de>
 222:	74 74                	je     298 <_start-0x7968>
 224:	79 5f                	jns    285 <_start-0x797b>
 226:	73 65                	jae    28d <_start-0x7973>
 228:	74 5f                	je     289 <_start-0x7977>
 22a:	74 68                	je     294 <_start-0x796c>
 22c:	65 6d                	gs insl (%dx),%es:(%edi)
 22e:	65 00 70 61          	add    %dh,%gs:0x61(%eax)
 232:	67 65 5f             	addr16 gs pop %edi
 235:	74 61                	je     298 <_start-0x7968>
 237:	62 6c 65 00          	bound  %ebp,0x0(%ebp,%eiz,2)
 23b:	74 74                	je     2b1 <_start-0x794f>
 23d:	79 5f                	jns    29e <_start-0x7962>
 23f:	70 75                	jo     2b6 <_start-0x794a>
 241:	74 5f                	je     2a2 <_start-0x795e>
 243:	63 68 61             	arpl   %bp,0x61(%eax)
 246:	72 00                	jb     248 <_start-0x79b8>
 248:	74 68                	je     2b2 <_start-0x794e>
 24a:	65 6d                	gs insl (%dx),%es:(%edi)
 24c:	65 5f                	gs pop %edi
 24e:	63 6f 6c             	arpl   %bp,0x6c(%edi)
 251:	6f                   	outsl  %ds:(%esi),(%dx)
 252:	72 00                	jb     254 <_start-0x79ac>
 254:	54                   	push   %esp
 255:	54                   	push   %esp
 256:	59                   	pop    %ecx
 257:	5f                   	pop    %edi
 258:	43                   	inc    %ebx
 259:	4f                   	dec    %edi
 25a:	4c                   	dec    %esp
 25b:	55                   	push   %ebp
 25c:	4d                   	dec    %ebp
 25d:	4e                   	dec    %esi
 25e:	00 74 74 79          	add    %dh,0x79(%esp,%esi,2)
 262:	5f                   	pop    %edi
 263:	63 6c 65 61          	arpl   %bp,0x61(%ebp,%eiz,2)
 267:	72 00                	jb     269 <_start-0x7997>
 269:	74 74                	je     2df <_start-0x7921>
 26b:	79 5f                	jns    2cc <_start-0x7934>
 26d:	73 63                	jae    2d2 <_start-0x792e>
 26f:	72 6f                	jb     2e0 <_start-0x7920>
 271:	6c                   	insb   (%dx),%es:(%edi)
 272:	6c                   	insb   (%dx),%es:(%edi)
 273:	5f                   	pop    %edi
 274:	75 70                	jne    2e6 <_start-0x791a>
 276:	00 54 54 59          	add    %dl,0x59(%esp,%edx,2)
 27a:	5f                   	pop    %edi
 27b:	52                   	push   %edx
 27c:	4f                   	dec    %edi
 27d:	57                   	push   %edi
	...

Disassembly of section .debug_frame:

00000000 <.debug_frame>:
   0:	10 00                	adc    %al,(%eax)
   2:	00 00                	add    %al,(%eax)
   4:	ff                   	(bad)  
   5:	ff                   	(bad)  
   6:	ff                   	(bad)  
   7:	ff 01                	incl   (%ecx)
   9:	00 01                	add    %al,(%ecx)
   b:	7c 08                	jl     15 <_start-0x7beb>
   d:	0c 04                	or     $0x4,%al
   f:	04 88                	add    $0x88,%al
  11:	01 00                	add    %eax,(%eax)
  13:	00 14 00             	add    %dl,(%eax,%eax,1)
  16:	00 00                	add    %al,(%eax)
  18:	00 00                	add    %al,(%eax)
  1a:	00 00                	add    %al,(%eax)
  1c:	00 80 00 00 22 00    	add    %al,0x220000(%eax)
  22:	00 00                	add    %al,(%eax)
  24:	43                   	inc    %ebx
  25:	0e                   	push   %cs
  26:	0c 5e                	or     $0x5e,%al
  28:	0e                   	push   %cs
  29:	04 00                	add    $0x0,%al
  2b:	00 88 00 00 00 00    	add    %cl,0x0(%eax)
  31:	00 00                	add    %al,(%eax)
  33:	00 22                	add    %ah,(%edx)
  35:	80 00 00             	addb   $0x0,(%eax)
  38:	15 01 00 00 43       	adc    $0x43000001,%eax
  3d:	0e                   	push   %cs
  3e:	14 42                	adc    $0x42,%al
  40:	0e                   	push   %cs
  41:	18 42 0e             	sbb    %al,0xe(%edx)
  44:	1c 48                	sbb    $0x48,%al
  46:	0e                   	push   %cs
  47:	14 45                	adc    $0x45,%al
  49:	0e                   	push   %cs
  4a:	18 42 0e             	sbb    %al,0xe(%edx)
  4d:	1c 48                	sbb    $0x48,%al
  4f:	0e                   	push   %cs
  50:	14 42                	adc    $0x42,%al
  52:	0e                   	push   %cs
  53:	18 42 0e             	sbb    %al,0xe(%edx)
  56:	1c 48                	sbb    $0x48,%al
  58:	0e                   	push   %cs
  59:	14 45                	adc    $0x45,%al
  5b:	0e                   	push   %cs
  5c:	18 42 0e             	sbb    %al,0xe(%edx)
  5f:	1c 48                	sbb    $0x48,%al
  61:	0e                   	push   %cs
  62:	14 42                	adc    $0x42,%al
  64:	0e                   	push   %cs
  65:	18 42 0e             	sbb    %al,0xe(%edx)
  68:	1c 48                	sbb    $0x48,%al
  6a:	0e                   	push   %cs
  6b:	14 45                	adc    $0x45,%al
  6d:	0e                   	push   %cs
  6e:	18 42 0e             	sbb    %al,0xe(%edx)
  71:	1c 48                	sbb    $0x48,%al
  73:	0e                   	push   %cs
  74:	14 42                	adc    $0x42,%al
  76:	0e                   	push   %cs
  77:	18 42 0e             	sbb    %al,0xe(%edx)
  7a:	1c 48                	sbb    $0x48,%al
  7c:	0e                   	push   %cs
  7d:	14 45                	adc    $0x45,%al
  7f:	0e                   	push   %cs
  80:	18 42 0e             	sbb    %al,0xe(%edx)
  83:	1c 48                	sbb    $0x48,%al
  85:	0e                   	push   %cs
  86:	14 42                	adc    $0x42,%al
  88:	0e                   	push   %cs
  89:	18 45 0e             	sbb    %al,0xe(%ebp)
  8c:	1c 48                	sbb    $0x48,%al
  8e:	0e                   	push   %cs
  8f:	14 45                	adc    $0x45,%al
  91:	0e                   	push   %cs
  92:	18 45 0e             	sbb    %al,0xe(%ebp)
  95:	1c 48                	sbb    $0x48,%al
  97:	0e                   	push   %cs
  98:	14 4a                	adc    $0x4a,%al
  9a:	0e                   	push   %cs
  9b:	18 42 0e             	sbb    %al,0xe(%edx)
  9e:	1c 48                	sbb    $0x48,%al
  a0:	0e                   	push   %cs
  a1:	14 49                	adc    $0x49,%al
  a3:	0e                   	push   %cs
  a4:	18 41 0e             	sbb    %al,0xe(%ecx)
  a7:	1c 48                	sbb    $0x48,%al
  a9:	0e                   	push   %cs
  aa:	14 4c                	adc    $0x4c,%al
  ac:	0e                   	push   %cs
  ad:	18 41 0e             	sbb    %al,0xe(%ecx)
  b0:	1c 48                	sbb    $0x48,%al
  b2:	0e                   	push   %cs
  b3:	14 02                	adc    $0x2,%al
  b5:	49                   	dec    %ecx
  b6:	0e                   	push   %cs
  b7:	04 28                	add    $0x28,%al
  b9:	00 00                	add    %al,(%eax)
  bb:	00 00                	add    %al,(%eax)
  bd:	00 00                	add    %al,(%eax)
  bf:	00 37                	add    %dh,(%edi)
  c1:	81 00 00 27 00 00    	addl   $0x2700,(%eax)
  c7:	00 43 0e             	add    %al,0xe(%ebx)
  ca:	10 43 0e             	adc    %al,0xe(%ebx)
  cd:	18 42 0e             	sbb    %al,0xe(%edx)
  d0:	1c 42                	sbb    $0x42,%al
  d2:	0e                   	push   %cs
  d3:	20 48 0e             	and    %cl,0xe(%eax)
  d6:	10 43 0e             	adc    %al,0xe(%ebx)
  d9:	1c 45                	sbb    $0x45,%al
  db:	0e                   	push   %cs
  dc:	20 48 0e             	and    %cl,0xe(%eax)
  df:	10 44 0e 04          	adc    %al,0x4(%esi,%ecx,1)
  e3:	00 10                	add    %dl,(%eax)
  e5:	00 00                	add    %al,(%eax)
  e7:	00 ff                	add    %bh,%bh
  e9:	ff                   	(bad)  
  ea:	ff                   	(bad)  
  eb:	ff 01                	incl   (%ecx)
  ed:	00 01                	add    %al,(%ecx)
  ef:	7c 08                	jl     f9 <_start-0x7b07>
  f1:	0c 04                	or     $0x4,%al
  f3:	04 88                	add    $0x88,%al
  f5:	01 00                	add    %eax,(%eax)
  f7:	00 14 00             	add    %dl,(%eax,%eax,1)
  fa:	00 00                	add    %al,(%eax)
  fc:	e4 00                	in     $0x0,%al
  fe:	00 00                	add    %al,(%eax)
 100:	5e                   	pop    %esi
 101:	81 00 00 32 00 00    	addl   $0x3200,(%eax)
 107:	00 43 0e             	add    %al,0xe(%ebx)
 10a:	0c 6e                	or     $0x6e,%al
 10c:	0e                   	push   %cs
 10d:	04 00                	add    $0x0,%al
 10f:	00 1c 00             	add    %bl,(%eax,%eax,1)
 112:	00 00                	add    %al,(%eax)
 114:	e4 00                	in     $0x0,%al
 116:	00 00                	add    %al,(%eax)
 118:	90                   	nop
 119:	81 00 00 ec 00 00    	addl   $0xec00,(%eax)
 11f:	00 41 0e             	add    %al,0xe(%ecx)
 122:	08 83 02 43 0e 20    	or     %al,0x200e4302(%ebx)
 128:	02 e6                	add    %dh,%ah
 12a:	0e                   	push   %cs
 12b:	08 41 c3             	or     %al,-0x3d(%ecx)
 12e:	0e                   	push   %cs
 12f:	04 1c                	add    $0x1c,%al
 131:	00 00                	add    %al,(%eax)
 133:	00 e4                	add    %ah,%ah
 135:	00 00                	add    %al,(%eax)
 137:	00 7c 82 00          	add    %bh,0x0(%edx,%eax,4)
 13b:	00 31                	add    %dh,(%ecx)
 13d:	00 00                	add    %al,(%eax)
 13f:	00 43 0e             	add    %al,0xe(%ebx)
 142:	10 4f 0e             	adc    %cl,0xe(%edi)
 145:	1c 41                	sbb    $0x41,%al
 147:	0e                   	push   %cs
 148:	20 48 0e             	and    %cl,0xe(%eax)
 14b:	10 55 0e             	adc    %dl,0xe(%ebp)
 14e:	04 00                	add    $0x0,%al
 150:	0c 00                	or     $0x0,%al
 152:	00 00                	add    %al,(%eax)
 154:	e4 00                	in     $0x0,%al
 156:	00 00                	add    %al,(%eax)
 158:	ad                   	lods   %ds:(%esi),%eax
 159:	82 00 00             	addb   $0x0,(%eax)
 15c:	02 00                	add    (%eax),%al
 15e:	00 00                	add    %al,(%eax)
 160:	14 00                	adc    $0x0,%al
 162:	00 00                	add    %al,(%eax)
 164:	e4 00                	in     $0x0,%al
 166:	00 00                	add    %al,(%eax)
 168:	af                   	scas   %es:(%edi),%eax
 169:	82 00 00             	addb   $0x0,(%eax)
 16c:	60                   	pusha  
 16d:	00 00                	add    %al,(%eax)
 16f:	00 43 0e             	add    %al,0xe(%ebx)
 172:	14 02                	adc    $0x2,%al
 174:	5c                   	pop    %esp
 175:	0e                   	push   %cs
 176:	04 00                	add    $0x0,%al
