
build/bin/system.elf:     file format elf32-i386


Disassembly of section .boottext:

00007c00 <_start>:
    7c00:	ea 05 7c 00 00   	ljmp   $0xb8,$0x7c05

00007c05 <offest>:
    7c05:	b8 00 00 8e d8       	mov    $0xd88e0000,%eax
    7c0a:	8e d0                	mov    %eax,%ss
    7c0c:	8e c0                	mov    %eax,%es
    7c0e:	8e e0                	mov    %eax,%fs
    7c10:	8e e8                	mov    %eax,%gs
    7c12:	66 bc 00 7c          	mov    $0x7c00,%sp
	...

00007c18 <boot_load>:
    7c18:	bb 00 7e b9 02       	mov    $0x2b97e00,%ebx
    7c1d:	00 b8 40 02 ba 80    	add    %bh,-0x7f45fdc0(%eax)
    7c23:	00 cd                	add    %cl,%ch
    7c25:	13 72 f0             	adc    -0x10(%edx),%esi
    7c28:	fa                   	cli    
    7c29:	0f 01 16             	lgdtl  (%esi)
    7c2c:	77 7e                	ja     7cac <boot_sig+0x6b>
    7c2e:	0f 01 1e             	lidtl  (%esi)
    7c31:	7d 7e                	jge    7cb1 <boot_sig+0x70>
    7c33:	66 b8 01 00          	mov    $0x1,%ax
    7c37:	00 00                	add    %al,(%eax)
    7c39:	0f 01 f0             	lmsw   %ax
    7c3c:	ea 00 7e 08 00   	ljmp   $0x0,$0x87e00

00007c41 <boot_sig>:
	...
    7dfd:	00 55 aa             	add    %dl,-0x56(%ebp)

00007e00 <_protected_mode_start>:
    7e00:	66 b8 10 00          	mov    $0x10,%ax
    7e04:	8e d8                	mov    %eax,%ds
    7e06:	8e d0                	mov    %eax,%ss
    7e08:	8e c0                	mov    %eax,%es
    7e0a:	8e e0                	mov    %eax,%fs
    7e0c:	8e e8                	mov    %eax,%gs
    7e0e:	bc 00 7c 00 00       	mov    $0x7c00,%esp
    7e13:	e8 00 01 00 00       	call   7f18 <_os_init>
    7e18:	b8 00 b0 00 00       	mov    $0xb000,%eax
    7e1d:	0f 22 d8             	mov    %eax,%cr3
    7e20:	0f 20 e0             	mov    %cr4,%eax
    7e23:	83 c8 10             	or     $0x10,%eax
    7e26:	0f 22 e0             	mov    %eax,%cr4
    7e29:	0f 20 c0             	mov    %cr0,%eax
    7e2c:	0d 00 00 00 80       	or     $0x80000000,%eax
    7e31:	0f 22 c0             	mov    %eax,%cr0
    7e34:	66 b8 28 00          	mov    $0x28,%ax
    7e38:	0f 00 d8             	ltr    %ax
    7e3b:	6a 23                	push   $0x23
    7e3d:	68 20 cd 00 00       	push   $0xcd20
    7e42:	68 02 02 00 00       	push   $0x202
    7e47:	6a 1b                	push   $0x1b
    7e49:	68 4f 7e 00 00       	push   $0x7e4f
    7e4e:	cf                   	iret   

00007e4f <task_0_entry>:
    7e4f:	66 8c d0             	mov    %ss,%ax
    7e52:	8e d8                	mov    %eax,%ds
    7e54:	8e d0                	mov    %eax,%ss
    7e56:	8e c0                	mov    %eax,%es
    7e58:	8e e0                	mov    %eax,%fs
    7e5a:	8e e8                	mov    %eax,%gs
    7e5c:	e9 2f 00 00 00       	jmp    7e90 <task_0>

00007e61 <timer_init>:
    7e61:	66 1e                	pushw  %ds
    7e63:	60                   	pusha  
    7e64:	b0 20                	mov    $0x20,%al
    7e66:	e6 20                	out    %al,$0x20
    7e68:	66 b8 10 00          	mov    $0x10,%ax
    7e6c:	8e d8                	mov    %eax,%ds
    7e6e:	e8 6b 00 00 00       	call   7ede <task_sched>
    7e73:	61                   	popa   
    7e74:	66 1f                	popw   %ds
    7e76:	cf                   	iret   

00007e77 <gdt_desc>:
    7e77:	ff 07                	incl   (%edi)
    7e79:	00 c1                	add    %al,%cl
	...

00007e7d <idt_desc>:
    7e7d:	ff 07                	incl   (%edi)
    7e7f:	20 09                	and    %cl,(%ecx)
    7e81:	01 00                	add    %eax,(%eax)

Disassembly of section .text:

00007e90 <task_0>:
    7e90:	83 ec 10             	sub    $0x10,%esp
    7e93:	c6 44 24 0f 00       	movb   $0x0,0xf(%esp)
    7e98:	0f b6 44 24 0f       	movzbl 0xf(%esp),%eax
    7e9d:	83 c0 01             	add    $0x1,%eax
    7ea0:	88 44 24 0f          	mov    %al,0xf(%esp)
    7ea4:	eb f2                	jmp    7e98 <task_0+0x8>

00007ea6 <task_1>:
    7ea6:	83 ec 10             	sub    $0x10,%esp
    7ea9:	c6 44 24 0f ff       	movb   $0xff,0xf(%esp)
    7eae:	0f b6 44 24 0f       	movzbl 0xf(%esp),%eax
    7eb3:	83 e8 01             	sub    $0x1,%eax
    7eb6:	88 44 24 0f          	mov    %al,0xf(%esp)
    7eba:	eb f2                	jmp    7eae <task_1+0x8>

00007ebc <outb>:
    7ebc:	83 ec 08             	sub    $0x8,%esp
    7ebf:	8b 54 24 0c          	mov    0xc(%esp),%edx
    7ec3:	8b 44 24 10          	mov    0x10(%esp),%eax
    7ec7:	88 54 24 04          	mov    %dl,0x4(%esp)
    7ecb:	66 89 04 24          	mov    %ax,(%esp)
    7ecf:	0f b7 14 24          	movzwl (%esp),%edx
    7ed3:	0f b6 44 24 04       	movzbl 0x4(%esp),%eax
    7ed8:	ee                   	out    %al,(%dx)
    7ed9:	90                   	nop
    7eda:	83 c4 08             	add    $0x8,%esp
    7edd:	c3                   	ret    

00007ede <task_sched>:
    7ede:	83 ec 10             	sub    $0x10,%esp
    7ee1:	a1 00 c9 00 00       	mov    0xc900,%eax
    7ee6:	83 f8 28             	cmp    $0x28,%eax
    7ee9:	75 07                	jne    7ef2 <task_sched+0x14>
    7eeb:	b8 30 00 00 00       	mov    $0x30,%eax
    7ef0:	eb 05                	jmp    7ef7 <task_sched+0x19>
    7ef2:	b8 28 00 00 00       	mov    $0x28,%eax
    7ef7:	a3 00 c9 00 00       	mov    %eax,0xc900
    7efc:	c7 44 24 08 00 00 00 	movl   $0x0,0x8(%esp)
    7f03:	00 
    7f04:	a1 00 c9 00 00       	mov    0xc900,%eax
    7f09:	89 44 24 0c          	mov    %eax,0xc(%esp)
    7f0d:	8d 44 24 08          	lea    0x8(%esp),%eax
    7f11:	ff 28                	ljmp   *(%eax)
    7f13:	90                   	nop
    7f14:	83 c4 10             	add    $0x10,%esp
    7f17:	c3                   	ret    

00007f18 <_os_init>:
    7f18:	83 ec 10             	sub    $0x10,%esp
    7f1b:	6a 20                	push   $0x20
    7f1d:	6a 11                	push   $0x11
    7f1f:	e8 98 ff ff ff       	call   7ebc <outb>
    7f24:	83 c4 08             	add    $0x8,%esp
    7f27:	68 a0 00 00 00       	push   $0xa0
    7f2c:	6a 11                	push   $0x11
    7f2e:	e8 89 ff ff ff       	call   7ebc <outb>
    7f33:	83 c4 08             	add    $0x8,%esp
    7f36:	6a 21                	push   $0x21
    7f38:	6a 20                	push   $0x20
    7f3a:	e8 7d ff ff ff       	call   7ebc <outb>
    7f3f:	83 c4 08             	add    $0x8,%esp
    7f42:	68 a1 00 00 00       	push   $0xa1
    7f47:	6a 28                	push   $0x28
    7f49:	e8 6e ff ff ff       	call   7ebc <outb>
    7f4e:	83 c4 08             	add    $0x8,%esp
    7f51:	6a 21                	push   $0x21
    7f53:	6a 04                	push   $0x4
    7f55:	e8 62 ff ff ff       	call   7ebc <outb>
    7f5a:	83 c4 08             	add    $0x8,%esp
    7f5d:	68 a1 00 00 00       	push   $0xa1
    7f62:	6a 02                	push   $0x2
    7f64:	e8 53 ff ff ff       	call   7ebc <outb>
    7f69:	83 c4 08             	add    $0x8,%esp
    7f6c:	6a 21                	push   $0x21
    7f6e:	6a 01                	push   $0x1
    7f70:	e8 47 ff ff ff       	call   7ebc <outb>
    7f75:	83 c4 08             	add    $0x8,%esp
    7f78:	68 a1 00 00 00       	push   $0xa1
    7f7d:	6a 01                	push   $0x1
    7f7f:	e8 38 ff ff ff       	call   7ebc <outb>
    7f84:	83 c4 08             	add    $0x8,%esp
    7f87:	6a 21                	push   $0x21
    7f89:	68 fe 00 00 00       	push   $0xfe
    7f8e:	e8 29 ff ff ff       	call   7ebc <outb>
    7f93:	83 c4 08             	add    $0x8,%esp
    7f96:	68 a1 00 00 00       	push   $0xa1
    7f9b:	68 ff 00 00 00       	push   $0xff
    7fa0:	e8 17 ff ff ff       	call   7ebc <outb>
    7fa5:	83 c4 08             	add    $0x8,%esp
    7fa8:	c7 44 24 0c 16 d2 01 	movl   $0x1d216,0xc(%esp)
    7faf:	00 
    7fb0:	6a 43                	push   $0x43
    7fb2:	6a 36                	push   $0x36
    7fb4:	e8 03 ff ff ff       	call   7ebc <outb>
    7fb9:	83 c4 08             	add    $0x8,%esp
    7fbc:	8b 44 24 0c          	mov    0xc(%esp),%eax
    7fc0:	0f b6 c0             	movzbl %al,%eax
    7fc3:	6a 40                	push   $0x40
    7fc5:	50                   	push   %eax
    7fc6:	e8 f1 fe ff ff       	call   7ebc <outb>
    7fcb:	83 c4 08             	add    $0x8,%esp
    7fce:	8b 44 24 0c          	mov    0xc(%esp),%eax
    7fd2:	c1 f8 08             	sar    $0x8,%eax
    7fd5:	0f b6 c0             	movzbl %al,%eax
    7fd8:	6a 40                	push   $0x40
    7fda:	50                   	push   %eax
    7fdb:	e8 dc fe ff ff       	call   7ebc <outb>
    7fe0:	83 c4 08             	add    $0x8,%esp
    7fe3:	b8 61 7e 00 00       	mov    $0x7e61,%eax
    7fe8:	c1 e8 10             	shr    $0x10,%eax
    7feb:	66 a3 26 0a 01 00    	mov    %ax,0x10a26
    7ff1:	b8 61 7e 00 00       	mov    $0x7e61,%eax
    7ff6:	66 a3 20 0a 01 00    	mov    %ax,0x10a20
    7ffc:	66 c7 05 22 0a 01 00 	movw   $0x8,0x10a22
    8003:	08 00 
    8005:	66 c7 05 24 0a 01 00 	movw   $0x8e00,0x10a24
    800c:	00 8e 
    800e:	b8 00 c0 00 00       	mov    $0xc000,%eax
    8013:	66 a3 2a c1 00 00    	mov    %ax,0xc12a
    8019:	b8 80 c0 00 00       	mov    $0xc080,%eax
    801e:	66 a3 32 c1 00 00    	mov    %ax,0xc132
    8024:	b8 00 a0 00 00       	mov    $0xa000,%eax
    8029:	83 c8 07             	or     $0x7,%eax
    802c:	a3 00 b8 00 00       	mov    %eax,0xb800
    8031:	b8 00 90 00 00       	mov    $0x9000,%eax
    8036:	83 c8 07             	or     $0x7,%eax
    8039:	a3 00 a0 00 00       	mov    %eax,0xa000
    803e:	90                   	nop
    803f:	83 c4 10             	add    $0x10,%esp
    8042:	c3                   	ret    
    8043:	66 90                	xchg   %ax,%ax
    8045:	66 90                	xchg   %ax,%ax
    8047:	66 90                	xchg   %ax,%ax
    8049:	66 90                	xchg   %ax,%ax
    804b:	66 90                	xchg   %ax,%ax
    804d:	66 90                	xchg   %ax,%ax
    804f:	90                   	nop

00008050 <tty_set_theme>:
    8050:	83 ec 08             	sub    $0x8,%esp
    8053:	8b 54 24 0c          	mov    0xc(%esp),%edx
    8057:	8b 44 24 10          	mov    0x10(%esp),%eax
    805b:	66 89 54 24 04       	mov    %dx,0x4(%esp)
    8060:	66 89 04 24          	mov    %ax,(%esp)
    8064:	0f b7 04 24          	movzwl (%esp),%eax
    8068:	c1 e0 04             	shl    $0x4,%eax
    806b:	89 c2                	mov    %eax,%edx
    806d:	0f b7 44 24 04       	movzwl 0x4(%esp),%eax
    8072:	09 d0                	or     %edx,%eax
    8074:	c1 e0 08             	shl    $0x8,%eax
    8077:	66 a3 20 11 01 00    	mov    %ax,0x11120
    807d:	90                   	nop
    807e:	83 c4 08             	add    $0x8,%esp
    8081:	c3                   	ret    

00008082 <tty_put_char>:
    8082:	53                   	push   %ebx
    8083:	83 ec 18             	sub    $0x18,%esp
    8086:	8b 44 24 20          	mov    0x20(%esp),%eax
    808a:	88 44 24 0c          	mov    %al,0xc(%esp)
    808e:	80 7c 24 0c 0a       	cmpb   $0xa,0xc(%esp)
    8093:	75 1f                	jne    80b4 <tty_put_char+0x32>
    8095:	c7 05 24 11 01 00 00 	movl   $0x0,0x11124
    809c:	00 00 00 
    809f:	0f b7 05 28 11 01 00 	movzwl 0x11128,%eax
    80a6:	83 c0 01             	add    $0x1,%eax
    80a9:	66 a3 28 11 01 00    	mov    %ax,0x11128
    80af:	e9 9a 00 00 00       	jmp    814e <tty_put_char+0xcc>
    80b4:	80 7c 24 0c 09       	cmpb   $0x9,0xc(%esp)
    80b9:	75 12                	jne    80cd <tty_put_char+0x4b>
    80bb:	a1 24 11 01 00       	mov    0x11124,%eax
    80c0:	83 c0 04             	add    $0x4,%eax
    80c3:	a3 24 11 01 00       	mov    %eax,0x11124
    80c8:	e9 81 00 00 00       	jmp    814e <tty_put_char+0xcc>
    80cd:	80 7c 24 0c 0d       	cmpb   $0xd,0xc(%esp)
    80d2:	75 0c                	jne    80e0 <tty_put_char+0x5e>
    80d4:	c7 05 24 11 01 00 00 	movl   $0x0,0x11124
    80db:	00 00 00 
    80de:	eb 6e                	jmp    814e <tty_put_char+0xcc>
    80e0:	66 0f be 54 24 0c    	movsbw 0xc(%esp),%dx
    80e6:	0f b7 05 20 11 01 00 	movzwl 0x11120,%eax
    80ed:	89 d1                	mov    %edx,%ecx
    80ef:	09 c1                	or     %eax,%ecx
    80f1:	8b 1d 10 c9 00 00    	mov    0xc910,%ebx
    80f7:	0f b7 05 28 11 01 00 	movzwl 0x11128,%eax
    80fe:	0f b7 d0             	movzwl %ax,%edx
    8101:	89 d0                	mov    %edx,%eax
    8103:	c1 e0 02             	shl    $0x2,%eax
    8106:	01 d0                	add    %edx,%eax
    8108:	c1 e0 04             	shl    $0x4,%eax
    810b:	89 c2                	mov    %eax,%edx
    810d:	a1 24 11 01 00       	mov    0x11124,%eax
    8112:	01 d0                	add    %edx,%eax
    8114:	01 c0                	add    %eax,%eax
    8116:	01 d8                	add    %ebx,%eax
    8118:	89 ca                	mov    %ecx,%edx
    811a:	66 89 10             	mov    %dx,(%eax)
    811d:	a1 24 11 01 00       	mov    0x11124,%eax
    8122:	83 c0 01             	add    $0x1,%eax
    8125:	a3 24 11 01 00       	mov    %eax,0x11124
    812a:	a1 24 11 01 00       	mov    0x11124,%eax
    812f:	83 f8 4f             	cmp    $0x4f,%eax
    8132:	76 1a                	jbe    814e <tty_put_char+0xcc>
    8134:	c7 05 24 11 01 00 00 	movl   $0x0,0x11124
    813b:	00 00 00 
    813e:	0f b7 05 28 11 01 00 	movzwl 0x11128,%eax
    8145:	83 c0 01             	add    $0x1,%eax
    8148:	66 a3 28 11 01 00    	mov    %ax,0x11128
    814e:	a1 24 11 01 00       	mov    0x11124,%eax
    8153:	83 f8 4f             	cmp    $0x4f,%eax
    8156:	76 1a                	jbe    8172 <tty_put_char+0xf0>
    8158:	c7 05 24 11 01 00 00 	movl   $0x0,0x11124
    815f:	00 00 00 
    8162:	0f b7 05 28 11 01 00 	movzwl 0x11128,%eax
    8169:	83 c0 01             	add    $0x1,%eax
    816c:	66 a3 28 11 01 00    	mov    %ax,0x11128
    8172:	0f b7 05 28 11 01 00 	movzwl 0x11128,%eax
    8179:	66 83 f8 18          	cmp    $0x18,%ax
    817d:	76 15                	jbe    8194 <tty_put_char+0x112>
    817f:	e8 47 00 00 00       	call   81cb <tty_scroll_up>
    8184:	0f b7 05 28 11 01 00 	movzwl 0x11128,%eax
    818b:	83 e8 01             	sub    $0x1,%eax
    818e:	66 a3 28 11 01 00    	mov    %ax,0x11128
    8194:	90                   	nop
    8195:	83 c4 18             	add    $0x18,%esp
    8198:	5b                   	pop    %ebx
    8199:	c3                   	ret    

0000819a <tty_put_str>:
    819a:	83 ec 0c             	sub    $0xc,%esp
    819d:	eb 1b                	jmp    81ba <tty_put_str+0x20>
    819f:	8b 44 24 10          	mov    0x10(%esp),%eax
    81a3:	0f b6 00             	movzbl (%eax),%eax
    81a6:	0f be c0             	movsbl %al,%eax
    81a9:	83 ec 0c             	sub    $0xc,%esp
    81ac:	50                   	push   %eax
    81ad:	e8 d0 fe ff ff       	call   8082 <tty_put_char>
    81b2:	83 c4 10             	add    $0x10,%esp
    81b5:	83 44 24 10 01       	addl   $0x1,0x10(%esp)
    81ba:	8b 44 24 10          	mov    0x10(%esp),%eax
    81be:	0f b6 00             	movzbl (%eax),%eax
    81c1:	84 c0                	test   %al,%al
    81c3:	75 da                	jne    819f <tty_put_str+0x5>
    81c5:	90                   	nop
    81c6:	90                   	nop
    81c7:	83 c4 0c             	add    $0xc,%esp
    81ca:	c3                   	ret    

000081cb <tty_scroll_up>:
    81cb:	90                   	nop
    81cc:	c3                   	ret    

000081cd <tty_clear>:
    81cd:	83 ec 10             	sub    $0x10,%esp
    81d0:	c7 44 24 0c 00 00 00 	movl   $0x0,0xc(%esp)
    81d7:	00 
    81d8:	eb 46                	jmp    8220 <tty_clear+0x53>
    81da:	c7 44 24 08 00 00 00 	movl   $0x0,0x8(%esp)
    81e1:	00 
    81e2:	eb 30                	jmp    8214 <tty_clear+0x47>
    81e4:	8b 0d 10 c9 00 00    	mov    0xc910,%ecx
    81ea:	8b 54 24 08          	mov    0x8(%esp),%edx
    81ee:	89 d0                	mov    %edx,%eax
    81f0:	c1 e0 02             	shl    $0x2,%eax
    81f3:	01 d0                	add    %edx,%eax
    81f5:	c1 e0 04             	shl    $0x4,%eax
    81f8:	89 c2                	mov    %eax,%edx
    81fa:	8b 44 24 0c          	mov    0xc(%esp),%eax
    81fe:	01 d0                	add    %edx,%eax
    8200:	01 c0                	add    %eax,%eax
    8202:	8d 14 01             	lea    (%ecx,%eax,1),%edx
    8205:	0f b7 05 20 11 01 00 	movzwl 0x11120,%eax
    820c:	66 89 02             	mov    %ax,(%edx)
    820f:	83 44 24 08 01       	addl   $0x1,0x8(%esp)
    8214:	83 7c 24 08 18       	cmpl   $0x18,0x8(%esp)
    8219:	76 c9                	jbe    81e4 <tty_clear+0x17>
    821b:	83 44 24 0c 01       	addl   $0x1,0xc(%esp)
    8220:	83 7c 24 0c 4f       	cmpl   $0x4f,0xc(%esp)
    8225:	76 b3                	jbe    81da <tty_clear+0xd>
    8227:	90                   	nop
    8228:	90                   	nop
    8229:	83 c4 10             	add    $0x10,%esp
    822c:	c3                   	ret    
